(lp0
V\u4f60\u50cf\u662f\u4e00\u573a\u9065\u4e0d\u53ef\u53ca\u7684\u68a6\uff0c\u5374\u5728\u6211\u7684\u4e16\u754c\u91cc\u771f\u5b9e\u65e0\u6bd4\u3002
p1
aV\u770b\u7740\u4f60\uff0c\u5de5\u4f5c\u65e5\u7684\u4e0b\u5348\u8336\u90fd\u8981\u751c\u4e0a\u51e0\u5206\u3002
p2
aV\u4f60\u592a\u81ea\u79c1\u4e86\uff0c\u6bcf\u6b21\u4f60\u53d1\u81ea\u62cd\uff0c\u4f1a\u6709\u591a\u5c11\u4eba\u7761\u4e0d\u7740\u89c9\uff0c\u4f60\u4e0d\u5728\u4e4e\uff0c\u6709\u591a\u5c11\u4eba\u9971\u53d7\u76f8\u601d\u4e4b\u75db\uff0c\u4f60\u4e0d\u5728\u4e4e\uff0c\u6709\u591a\u5c11\u4eba\u627f\u53d7\u7740\u6240\u7231\u4e0d\u5f97\u4e4b\u82e6\uff0c\u4f60\u4e0d\u5728\u4e4e\uff0c\u4f60\u53ea\u5728\u4e4e\u4f60\u81ea\u5df1\uff0c\u5c31\u50cf\u6211\u53ea\u5728\u4e4e\u4f60\u4e00\u6837\u81ea\u79c1\u3002
p3
aV.\u4f60\u6709\u6ca1\u6709\u95fb\u5230\u70e7\u7126\u7684\u5473\u9053\uff0c\u90a3\u662f\u6211\u7684\u5fc3\u5728\u4e3a\u4f60\u71c3\u70e7\u3002
p4
aV\u6211\u603b\u5728\u610f\u6d41\u4e91\u4e0e\u661f\u7fa4\u7684\u5750\u6807\uff0c\u4e00\u6735\u82b1\u5f00\u8c22\u7684\u65f6\u65e5\uff0c\u539f\u91ce\u4e0e\u5e73\u5ddd\u4e00\u671b\u65e0\u57a0\u662f\u5426\u5e73\u5c55\u3002\u54ea\u77e5\u4f60\u8f7b\u8f7b\u62ac\u8d77\u7709\u68a2\uff0c\u7adf\u8d50\u4e88\u6211\u4e00\u751f\u5927\u597d\u6cb3\u5c71\u3002
p5
aV\u4ed6\u7684\u80cc\u5f71\u4eff\u4f5b\u6162\u653e\u7684\u7f57\u66fc\u8482\u514b\u7535\u5f71\uff0c\u4e00\u79d2\u4e00\u5e27\u5b9a\u683c\u5f97\u60df\u5999\u60df\u8096\uff0c\u7626\u524a\u7684\u81c2\u8180\u906e\u4e0d\u4f4f\u78c5\u7934\u7231\u610f\uff0c\u4ed6\u5411\u5149\u8d70\u53bb\uff0c\u53c8\u50cf\u662f\u8d70\u5411\u4e86\u8c01\u7684\u68a6\u3002
p6
aVXXX\u6700\u5927\u7684\u9057\u61be\u5c31\u662f\u4e0d\u80fd\u4eb2\u543b\u81ea\u5df1\u7684\u8138\u3002
p7
aV\u6211\u4e0d\u77e5\u9053\u6b4c\u91cc\u5531\u7684\u662f\u8c01\uff0c\u6211\u542c\u7684\u5168\u90fd\u662f\u4f60\u3002
p8
aV\u8fd9\u662f\u4ec0\u4e48\u7ea7\u522b\u7684\u53ef\u7231\u554a\u3002
p9
aV\u4e0d\u6562\u7728\u773c\uff0c\u56e0\u4e3a\u7728\u773c\u671f\u95f4\u5c31\u770b\u4e0d\u5230\u4f60\u4e86\u3002
p10
aV\u9047\u89c1\u4f60\u4e4b\u540e\uff0c\u6211\u5c31\u89c9\u5f97\u4eba\u751f\u82e6\u77ed\u3002\u4e3a\u4ec0\u4e48\u82e6\u77ed\u5462\uff1f\u56e0\u4e3a\u751c\u7684\u90e8\u5206\u592a\u957f\u4e86\u3002
p11
aV\u5feb\u95e8\u4e00\u6b21,\u5fc3\u52a8\u5343\u6b21\u3002
p12
aV\u4f60\u7684\u624b\u6307\u662f\u9ebb\u9189\u9488\uff0c\u78b0\u4e00\u4e0b\uff0c\u4fbf\u6c89\u9189
p13
aV\u4f60\u7b11\u7684\u65f6\u5019\uff0c\u6211\u5fc3\u91cc\u88ab\u6492\u4e86\u4e00\u628a\u8df3\u8df3\u7cd6\u3002
p14
aV\u5c71\u6709\u6728\u516e\u537f\u6709\u610f\uff0c\u6628\u591c\u661f\u8fb0\u6070\u4f3c\u4f60\u3002
p15
aV\u7acb\u5982\u829d\u5170\u7389\u6811\uff0c\u7b11\u5982\u6717\u6708\u5165\u6000\uff0c\u5386\u5c3d\u5343\u5e06\uff0c\u4e0d\u5760\u9752\u4e91
p16
aV\u54e5\u54e5\u7f8e\u5f97\u50cf\u6735\u82b1\uff0c\u6211\u5f39\u8d77\u5fc3\u7231\u7684\u571f\u7435\u7436
p17
aV\u5982\u679c\u4f60\u8fc7\u5f97\u4e0d\u5e78\u798f\uff0c\u6211\u6240\u505a\u7684\u4e00\u5207\u624d\u662f\u5f92\u52b3\u3002
p18
aV\u6bd4\u4eca\u5929\u7684XXX\u66f4\u597d\u770b\u7684\u53ea\u6709\u660e\u5929\u7684XXX
p19
aV\u6211\u4e5f\u4e0d\u77e5\u9053\u5979\u662f\u5728\u8dd1\u5411\u7ec8\u70b9\u8fd8\u662f\u5728\u8dd1\u8fdb\u6211\u7684\u5fc3\uff0c\u540e\u8005\u7684\u8bdd\uff0c\u5979\u65e9\u5c31\u8d62\u4e86\u3002
p20
aV\u6700\u597d\u7684\u90a3\u5929\u592a\u96be\u6311\u9009\uff0c\u4e0d\u5982\u5c31\u5b9a\u4e49\u4e3a\u76f8\u9047\u8fd9\u5929\u3002
p21
aV\u6700\u597d\u7684\u90a3\u5929\u592a\u96be\u6311\u9009\uff0c\u4e0d\u5982\u5c31\u5b9a\u4e49\u4e3a\u76f8\u9047\u8fd9\u5929\u3002
p22
aV\u6211\u559c\u6b22\u4f60\u5929\u5730\u53ef\u9274\uff0c\u4e5f\u62dc\u6258\u4f60\u559c\u6b22\u6211\u4e00\u70b9\u70b9\uff0c\u4e0d\u8981\u6c38\u8fdc\u505a\u4e2a\u5c0f\u6c14\u9b3c\u3002
p23
aV\u6211\u771f\u7684\u5f88\u65e0\u8bed\u554a\uff0c\u4f60\u90a3\u4e48\u559c\u6b22\u770b\u7f8e\u5973\uff0c\u4f60\u5c31\u4e0d\u80fd\u53bb\u7167\u7167\u955c\u5b50\u5417\uff01
p24
aV\u4f60\u60f3\u8981\u7684\u4e00\u5207\u7ec8\u4f1a\u62b5\u8fbe\uff0c\u7ec8\u6709\u4e00\u5929\u4f60\u4f1a\u5728\u81ea\u5df1\u70ed\u7231\u7684\u4e16\u754c\u91cc\u95ea\u95ea\u53d1\u5149
p25
aV\u5373\u4f7f\u4eb2\u773c\u89c1\u4e86\u4e5f\u4e0d\u6562\u76f8\u4fe1\u7684\u7f8e\u8c8c\u3002
p26
aV\u7edd\u5473\u90fd\u627e\u4e0d\u5230\u8fd9\u4e48\u7edd\u7684\u9501\u9aa8\u3002
p27
aV\u8001\u5929\u7237\uff0c\u5c31\u8ba9\u6211\u5ac1\u7ed9\u4ed6\u5427\u3002\u62dc\u6258\u62dc\u6258\uff0c\u6211\u597d\u559c\u6b22\u4ed6\uff0c\u4ed6\u662f\u5b87\u5b99\u6700\u53ef\u7231\u7684\u5c0f\u7537\u5b69\uff01
p28
aV\u540c\u6837\u662f\u968f\u7740\u52a8\u4f5c\u800c\u98de\u626c\u7684\u957f\u53d1\u548c\u5bbd\u677e\u7bee\u7403\u961f\u961f\u670d\u7684\u4e0b\u6446\uff0c\u6f47\u6d12\u5229\u843d\u7684\u8d77\u8df3\u6295\u5165\u4e09\u5206\u7403\u6beb\u4e0d\u5728\u610f\u7684\u7ffb\u8f6c\u624b\u8155\uff0c\u624b\u80cc\u64e6\u53bb\u989d\u5934\u4e0a\u7684\u53f7\uff0c\u5f2f\u7740\u7709\u773c\u7b11\u7740\u95ee\uff1a\u201c\u6211\u8fd9\u7403\u8fd8\u4e0d\u9519\u5427\uff1f\u201d
p29
aV\u5f53\u65f6\u5e74\u5c11\u6625\u886b\u8584\uff0c\u9a91\u9a6c\u501a\u659c\u6865\uff0c\u6ee1\u697c\u7ea2\u8896\u62db\u3002
p30
aV\u8fd9\u4e16\u4e0a\u4e00\u5207\u7f8e\u597d\u7684\u4e8b\u60c5\uff0c\u4f60\u7684\u8138\u5c31\u5360\u4e8699%
p31
aV\u60f3\u628a\u6211\u6ce1\u5728\u725b\u5976\u74f6\u91cc\u7684\u4e00\u53e5\u53e5\u60c5\u8bdd\u5168\u635e\u4e0a\u6765\uff0c\u7cbe\u5fc3\u5305\u88c5\u6210\u7cd6\u679c\uff0c\u6ee1\u5f53\u5f53\u5730\u6293\u4e00\u628a\u5c31\u6367\u5230\u4f60\u9762\u524d\u3002
p32
aV\u628a\u7709\u6e05\u76ee\u79c0\u8fd8\u7ed9\u5c71\u6c34\u5929\u5730\uff0c\u628a\u677e\u95f4\u7ec6\u96e8\u8fd8\u7ed9\u521d\u9047\uff0c\u628a\u4e00\u89c1\u949f\u60c5\uff0c\u8fd8\u7ed9\u4f60\u3002
p33
aV\u4fcf\u4e3d\u82e5\u4e09\u6625\u4e4b\u6843\uff0c\u6e05\u7d20\u82e5\u4e5d\u79cb\u4e4b\u83ca
p34
aV\u5b97\u4e4b\u6f47\u6d12\u7f8e\u5c11\u5e74\uff0c\u4e3e\u89de\u767d\u773c\u671b\u9752\u5929\uff0c\u768e\u5982\u7389\u6811\u4e34\u98ce\u524d
p35
aV\u4f60\u662f\u5c71\u95f4\u6e05\u51bd\u7684\u6708\uff0c\u5357\u98ce\u4e5f\u4e0d\u53ca\u6e29\u67d4\u7684\u4f60\u3002
p36
aV\u6211\u5728\u884c\u661f\u4e0a\u5199\u4e0b\u4e86\u4f60\u7684\u540d\u5b57\uff0c\u5982\u679c\u661f\u5149\u6d12\u843d\u7684\u8bdd\uff0c\u90a3\u9897\u661f\u661f\u4f1a\u6700\u95ea\u8000
p37
aV\u4e0d\u8981\u6dcb\u5230\u96e8\u5566\uff0c\u4e0d\u7136\u4f60\u4f1a\u53ef\u7231\u5230\u53d1\u82bd\u7684\u3002
p38
aV\u4f60\u7728\u7728\u773c\u775b\uff0c\u5c31\u53d8\u6210\u4e00\u9897\u661f\u661f\u843d\u5165\u6211\u7684\u5fc3\u3002
p39
aV\u559c\u6b22\u4e00\u5207\u53ef\u7231\u7684\u4eba\u4e0e\u4e8b\uff0c\u60a6\u8033\u7684\u98ce\u94c3\u3001\u4f38\u61d2\u8170\u7684\u732b\u54aa\u3001\u53fd\u53fd\u55b3\u55b3\u7684\u5c0f\u9e1f\u3001\u5728\u98ce\u91cc\u7ffb\u98de\u7684\u4e66\u9875\u4e0a\u7684\u6f02\u4eae\u7684\u6587\u5b57\u3002\u559c\u6b22\u4e16\u95f4\u4e07\u7269\uff0c\u4f46\u6211\u66f4\u559c\u6b22\u4f60\uff0c\u56e0\u4e3a\u4f60\u662f\u53ef\u7231\u672c\u8eab\u3002
p40
aV\u4f60\u77e5\u9053\u4e3a\u4ec0\u4e48\u6211\u8fd9\u4e48\u597d\u52a8\u5417? \u56e0\u4e3a\u6bcf\u4e00\u523b\u90fd\u5728\u4e3a\u4f60\u5fc3\u52a8\u3002
p41
aV\u4f60\u7684\u624b\u6307\u662f\u9ebb\u9189\u9488\uff0c\u78b0\u4e00\u4e0b\uff0c\u4fbf\u6c89\u9189
p42
aV\u600e\u6837\u624d\u80fd\u5f97\u5230\u4f60\u554a\uff1f\u9ebb\u888b\u8fd8\u662f\u751c\u8a00\u871c\u8bed\u3002
p43
aV\u6211\u4e0d\u77e5\u9053\u6b4c\u91cc\u5531\u7684\u662f\u8c01\uff0c\u6211\u542c\u7684\u5168\u90fd\u662f\u4f60\u3002
p44
aV\u4f60\u592a\u81ea\u79c1\u4e86\uff0c\u6bcf\u6b21\u4f60\u53d1\u81ea\u62cd\uff0c\u4f1a\u6709\u591a\u5c11\u4eba\u7761\u4e0d\u7740\u89c9\uff0c\u4f60\u4e0d\u5728\u4e4e\uff0c\u6709\u591a\u5c11\u4eba\u9971\u53d7\u76f8\u601d\u4e4b\u75db\uff0c\u4f60\u4e0d\u5728\u4e4e\uff0c\u6709\u591a\u5c11\u4eba\u627f\u53d7\u7740\u6240\u7231\u4e0d\u5f97\u4e4b\u82e6\uff0c\u4f60\u4e0d\u5728\u4e4e\uff0c\u4f60\u53ea\u5728\u4e4e\u4f60\u81ea\u5df1\uff0c\u5c31\u50cf\u6211\u53ea\u5728\u4e4e\u4f60\u4e00\u6837\u81ea\u79c1\u3002
p45
aV\u5929\u4e0a\u6709\u591a\u5c11\u661f\u5149 \u4e16\u95f4\u6709\u591a\u5c11\u5973\u5b69 \u4f46\u5929\u4e0a\u53ea\u6709\u4e00\u4e2a\u6708\u4eae \u4e16\u95f4\u53ea\u6709\u4e00\u4e2a\u4f60 \u3002
p46
aV\u6211\u503e\u5bb6\u8361\u4ea7\u4e70\u4e86\u628a\u5251\uff0c\u6253\u7b97\u559d\u7897\u9152\u4fbf\u95ef\u8361\u6c5f\u6e56\uff0c\u78b0\u5de7\u4f60\u5728\u90bb\u684c\u7b11\uff0c\u4ece\u6b64\u5fc3\u4e2d\u65e0\u6c5f\u6e56
p47
aV\u4f60\u643a\u98ce\u800c\u6765\uff0c\u5982\u82b1\u7efd\u653e\uff1b\u4e8e\u96ea\u8272\u4e4b\u95f4\uff0c\u63fd\u6708\u800c\u4e0a\u3002\u81f3\u6b64\uff0c\u4e16\u95f4\u6240\u8c13\u98ce\u82b1\u96ea\u6708\uff0c\u7686\u4e0e\u4f60\u6709\u5173\u3002
p48
aV\u4f60\u518d\u4e0d\u56de\u53bb\u8fea\u58eb\u5c3c\u5c31\u8981\u6ca1\u516c\u4e3b\u4e86\uff01
p49
aV\u8fde\u8bb0\u8005\u7684\u5fc3\u4e5f\u72d9\u51fb\u7684\u7f8e\u8c8c\u3002
p50
aV\u8fd9\u6837\u7684\u989d\u7f8e\u8c8c\u662f\u771f\u5b9e\u5b58\u5728\u7684\u5417
p51
aV\u751f\u6d3b\u6bcf\u5929\u90fd\u8ba9\u6211\u7070\u5934\u571f\u8138\uff0c\u4f60\u5374\u6709\u80fd\u529b\u8ba9\u6c99\u6f20\u91cc\u5f00\u51fa\u8537\u8587\u3002
p52
aV\u5018\u82e5\u7f8e\u8c8c\u53ef\u4ee5\u6740\u4eba\uff0c\u90a3\u6211\u65e9\u5df2\u7ecf\u88ab\u4f60\u6740\u7684\u7247\u7532\u4e0d\u7559\u4e86\u3002
p53
aV\u4ece\u5934\u53d1\u5230\u811a\u90fd\u662f\u5b8c\u7f8e\u3002
p54
aV\u56e0\u4e3a\u6709\u54e5\u54e5\u7684\u817f\uff0c\u4ece\u6b64\u4e16\u4e0a\u4fbf\u591a\u4e86\u4e00\u5ea7\u4e07\u91cc\u957f\u57ce\u3002
p55
aV\u4f60\u5176\u6709\u70b9\u50cf\u5929\u4e0a\u7684\u6708\u4eae\uff0c\u4e5f\u50cf\u90a3\u95ea\u70c1\u7684\u661f\u661f\uff0c\u53ef\u60dc\u6211\u4e0d\u662f\u8bd7\u4eba\uff0c\u5426\u5219\u5f53\u5199\u4e00\u4e07\u9996\u8bd7\u6765\u5f62\u5bb9\u4f60\u7684\u7f8e\u4e3d\u3002
p56
aV\u6211\u7684\u5929\uff01\u8fd9\u662f\u4ec0\u4e48\u7ea7\u522b\u7684\u4ed9\u5973\u3002
p57
aV\u559c\u6b22\u4e00\u5207\u53ef\u7231\u7684\u4eba\u4e0e\u4e8b\uff0c\u60a6\u8033\u7684\u98ce\u94c3\u3001\u4f38\u61d2\u8170\u7684\u732b\u54aa\u3001\u53fd\u53fd\u55b3\u55b3\u7684\u5c0f\u9e1f\u3001\u5728\u98ce\u91cc\u7ffb\u98de\u7684\u4e66\u9875\u4e0a\u7684\u6f02\u4eae\u7684\u6587\u5b57\u3002\u559c\u6b22\u4e16\u95f4\u4e07\u7269\uff0c\u4f46\u6211\u66f4\u559c\u6b22\u4f60
p58
aV\u5bf9\u4e0d\u8d77\uff0c\u6211\u63a5\u53d7\u4e0d\u4e86\u7f51\u604b\uff0c\u865a\u65e0\u7f25\u7f08\u7684\u4e1c\u897f\u6ca1\u529e\u6cd5\u7ed9\u6211\u5e26\u6765\u5b89\u5168\u611f\uff0c\u731c\u5fcc\u548c\u6000\u7591\u662f\u6df1\u591c\u6d41\u6cea\u7684\u6839\u6e90\uff0c\u6211\u8981\u7a33\u7a33\u7684\u5e78\u798f\uff0c\u4e00\u4f38\u624b\u5c31\u80fd\u89e6\u78b0\u7684\u90a3\u79cd\u3002\u4f46\u770b\u5230\u4f60\u8fd9\u5f20\u7167\u7247\u6211\u5c31\u77e5\u9053\uff1a\u6211\u80fd\u63a5\u53d7
p59
aV\u4ece\u5934\u53d1\u5230\u811a\u90fd\u5145\u6ee1\u5e05\u6c14\u56e0\u5b50\u7684\u54e5\u54e5\u3002
p60
aV\u4e0a\u5e1d\u7684\u73e0\u5b9d\u6389\u843d\u5730\uff0c\u6240\u4ee5\u6211\u770b\u89c1\u6ee1\u5929\u7e41\u661f\u548c\u4f60\u7684\u773c\u775b
p61
aV\u4f60\u662f\u9020\u7269\u8005\u7684\u5149\u8363\uff0c\u662f\u56db\u5b63\u4e0d\u53d8\u7684\u90c1\u90c1\u8471\u8471\uff0c\u662f\u5c71\u6d77\u4e91\u971e\u91cc\u6e29\u67d4\u7684\u98ce\u3002\u662f\u6211\u6240\u6709\u5c81\u6708\u91cc\uff0c\u6c38\u8fdc\u7684\u7f8e\u68a6
p62
aV\u4f60\u7684\u773c\u4e2d\u6709\u6625\u4e0e\u79cb\uff0c\u80dc\u8fc7\u6211\u89c1\u8fc7\u7231\u8fc7\u7684\u4e00\u5207\u5c71\u5ddd\u4e0e\u6cb3\u6d41\u3002
p63
aV\u6211\u4e5f\u4e0d\u77e5\u9053\u5979\u662f\u5728\u8dd1\u5411\u7ec8\u70b9\u8fd8\u662f\u5728\u8dd1\u8fdb\u6211\u7684\u5fc3\uff0c\u540e\u8005\u7684\u8bdd\uff0c\u5979\u65e9\u5c31\u8d62\u4e86\u3002
p64
aV\u8fd9\u4e5f\u592a\u597d\u770b\u4e86\uff01\u7f8e\u5230\u6211\u75af\u72c2\u7838\u5899\uff0c\u73b0\u5728\u6211\u4eec\u5bb6\u5df2\u7ecf\u53d8\u6210\u4e86\u5355\u95f4\u4e86\u3002
p65
aV\u6211\u7684\u5929\uff01\u8fd9\u662f\u4ec0\u4e48\u7ea7\u522b\u7684\u4ed9\u5973\u3002
p66
aV\u51ac\u6df1\u96ea\u51b7\u7089\u706b\u6e29\u9152\uff0c\u800c\u4f60\u4e00\u7b11\u53c8\u89c1\u6625\u98ce\u3002
p67
aV\u6700\u8fd1\u7684\u81ea\u62cd\u53d1\u6211\uff0c\u6211\u8981\u6362\u58c1\u7eb8\u4e86
p68
aV\u4f60\u662f\u821e\u53f0\u4e2d\u592e\u6d41\u8f6c\u7684\u70ed\u6d6a\uff0c\u5728\u805a\u5149\u706f\u95ea\u70c1\u7684\u591c\u8086\u610f\u53d1\u70eb
p69
aV\u8fd9\u6e29\u541e\u4e16\u4fd7\u4eba\u95f4\u70df\u706b\uff0c\u53ea\u6709\u4f60\u662f\u6211\u7684\u6c5f\u6cb3\u6e56\u6cca
p70
aV\u72ec\u81ea\u8d70\u8fc7\u82cd\u82cd\u83bd\u83bd\uff0c\u4e0e\u4f60\u540c\u884c\u624d\u6709\u4e86\u5149\u3002
p71
aV\u4f60\u5c31\u662f\u4e00\u5757\u5de7\u514b\u529b\uff0c\u4e56\u5de7\u53ef\u7231\u53c8\u7f8e\u4e3d\uff01
p72
aV\u4ece\u5934\u53d1\u5230\u811a\u90fd\u662f\u5b8c\u7f8e\u3002
p73
aV\u8001\u5929\u7237\uff0c\u5c31\u8ba9\u6211\u5ac1\u7ed9\u4ed6\u5427\u3002\u62dc\u6258\u62dc\u6258\uff0c\u6211\u597d\u559c\u6b22\u4ed6\uff0c\u4ed6\u662f\u5b87\u5b99\u6700\u53ef\u7231\u7684\u5c0f\u7537\u5b69\uff01
p74
aV\u4f60\u4ee5\u4e3a\u81ea\u5df1\u957f\u5f97\u5f88\u597d\u770b\u5417\uff1f\u6ca1\u9519\u6211\u4e5f\u8fd9\u4e48\u4ee5\u4e3a\u3002
p75
aV\u8fd9\u6837\u7684\u989c\u503c\u662f\u771f\u5b9e\u5b58\u5728\u7684\u5417\u3002
p76
aV\u56e0\u4e3a\u6709\u54e5\u54e5\u7684\u817f\uff0c\u4ece\u6b64\u4e16\u4e0a\u4fbf\u591a\u4e86\u4e00\u5ea7\u4e07\u91cc\u957f\u57ce\u3002
p77
aV\u6211\u7231\u4f60\u6734\u7d20\uff0c\u4e0d\u7231\u4f60\u5962\u534e\uff0c\u4f60\u7a7f\u4e0a\u4e00\u4ef6\u84dd\u5e03\u888d\uff0c\u4f60\u7684\u7709\u76ee\u95f4\u5c31\u6709\u4e00\u79cd\u7279\u5f02\u7684\u5149\u5f69\uff0c\u6211\u770b\u4e86\u5fc3\u91cc\u5c31\u89c9\u5f97\u4e0d\u53ef\u540d\u72b6\u7684\u559c\u6b22\u3002
p78
aV\u53ef\u4ee5\u7ed9\u6211\u4e00\u7247\u6ce1\u817e\u7247\u5417? \u4e3a\u4ec0\u4e48\u6bcf\u6b21\u770b\u5230\u4f60\u6211\u5c31\u90a3\u4e48\u6ca1\u6709\u62b5\u6297\u529b\u3002
p79
aV\u5979\u8138\u4e0a\u7684\u4e0d\u662f\u6c57\u6c34\u800c\u662f\u73ab\u7470\u82b1\u7684\u9732\u6c34\u3002
p80
aV\u90a3\u7e41\u590d\u7f24\u7eb7\u7684\u8272\u5f69\uff0c\u4e5f\u6bd4\u4e0d\u4e0a\u767d\u7eb8\u4e0a\u987f\u632b\u6709\u79e9\u7684\u4e00\u8bb0\u91cd\u58a8\uff0c\u53eb\u4eba\u8e0f\u5b9e\u4ece\u5bb9\uff0c\u4e5f\u53eb\u4eba\u8ff7\u604b\u7740\uff0c\u7422\u78e8\u7740\uff0c\u559c\u6b22\u5230\u8ba9\u4eba\u9b42\u4e0d\u5b88\u820d\uff0c\u96be\u4ee5\u81ea\u6301\u3002
p81
aV\u6211\u5728\u884c\u661f\u4e0a\u5199\u4e0b\u4e86\u4f60\u7684\u540d\u5b57\uff0c\u5982\u679c\u661f\u5149\u6d12\u843d\u7684\u8bdd\uff0c\u90a3\u9897\u661f\u661f\u4f1a\u6700\u95ea\u8000
p82
aV\u4f60\u771f\u597d\u770b\uff0c\u6211\u4e0d\u662f\u5728\u5938\u4f60\uff0c\u6211\u53ea\u662f\u5728\u63d0\u9192\u4f60\u3002
p83
aV\u4f60\u662f\u4e16\u95f4\u6700\u53ef\u7231\u7684\u5c0f\u661f\u661f\uff0c\u6211\u7231\u4e86\u6574\u4e2a\u5b87\u5b99\u53ea\u4e3a\u4e86\u548c\u4f60\u78b0\u5934
p84
aV\u4ed6\u8138\u4e0a\u7684\u4e0d\u662f\u80e1\u5b50\u800c\u662f\u73ab\u7470\u82b1\u7684\u523a\u3002
p85
aV.\u4f60\u6709\u6ca1\u6709\u95fb\u5230\u70e7\u7126\u7684\u5473\u9053\uff0c\u90a3\u662f\u6211\u7684\u5fc3\u5728\u4e3a\u4f60\u71c3\u70e7\u3002
p86
aV\u4f60\u5176\u6709\u70b9\u50cf\u5929\u4e0a\u7684\u6708\u4eae\uff0c\u4e5f\u50cf\u90a3\u95ea\u70c1\u7684\u661f\u661f\uff0c\u53ef\u60dc\u6211\u4e0d\u662f\u8bd7\u4eba\uff0c\u5426\u5219\u5f53\u5199\u4e00\u4e07\u9996\u8bd7\u6765\u5f62\u5bb9\u4f60\u7684\u7f8e\u4e3d\u3002
p87
aV\u4e0d\u662f\u996d\u4e5f\u8ba4\u8bc1\u7684\u5e05\u6c14\u3002
p88
aV\u4f60\u4ece\u6211\u9762\u524d\u7f13\u7f13\u8d70\u8fc7\u7684\u65f6\u5019\uff0c\u5929\u6c14\u90fd\u53d8\u6674\u6717\u3002
p89
aV\u4f60\u53ef\u4ee5\u7b11\u4e00\u4e2a\u5417?\u6211\u4eca\u5929\u51fa\u95e8\u6709\u70b9\u7f3a\u7cd6\u3002
p90
aV\u660e\u660e\u6ca1\u6709\u8d85\u901f\uff0c\u5374\u8fd8\u662f\u88ab\u4ea4\u8b66\u6293\u4f4f\u4e86\uff0c\u539f\u6765\u662f\u4f60\u8ba9\u6211\u5fc3\u8df3\u52a0\u901f\u3002
p91
aV\u6211\u7231\u4f60\u6734\u7d20\uff0c\u4e0d\u7231\u4f60\u5962\u534e\uff0c\u4f60\u7a7f\u4e0a\u4e00\u4ef6\u84dd\u5e03\u888d\uff0c\u4f60\u7684\u7709\u76ee\u95f4\u5c31\u6709\u4e00\u79cd\u7279\u5f02\u7684\u5149\u5f69\uff0c\u6211\u770b\u4e86\u5fc3\u91cc\u5c31\u89c9\u5f97\u4e0d\u53ef\u540d\u72b6\u7684\u559c\u6b22\u3002
p92
aV\u90a3\u7e41\u590d\u7f24\u7eb7\u7684\u8272\u5f69\uff0c\u4e5f\u6bd4\u4e0d\u4e0a\u767d\u7eb8\u4e0a\u987f\u632b\u6709\u79e9\u7684\u4e00\u8bb0\u91cd\u58a8\uff0c\u53eb\u4eba\u8e0f\u5b9e\u4ece\u5bb9\uff0c\u4e5f\u53eb\u4eba\u8ff7\u604b\u7740\uff0c\u7422\u78e8\u7740\uff0c\u559c\u6b22\u5230\u8ba9\u4eba\u9b42\u4e0d\u5b88\u820d\uff0c\u96be\u4ee5\u81ea\u6301\u3002
p93
aV\u4f60\u662f\u65e0\u610f\u7a7f\u5802\u98ce\uff0c\u504f\u504f\u5b64\u5028\u5f15\u5c71\u6d2a\u3002
p94
aV\u559c\u6b22\u4e00\u5207\u53ef\u7231\u7684\u4eba\u4e0e\u4e8b\uff0c\u60a6\u8033\u7684\u98ce\u94c3\u3001\u4f38\u61d2\u8170\u7684\u732b\u54aa\u3001\u53fd\u53fd\u55b3\u55b3\u7684\u5c0f\u9e1f\u3001\u5728\u98ce\u91cc\u7ffb\u98de\u7684\u4e66\u9875\u4e0a\u7684\u6f02\u4eae\u7684\u6587\u5b57\u3002\u559c\u6b22\u4e16\u95f4\u4e07\u7269\uff0c\u4f46\u6211\u66f4\u559c\u6b22\u4f60
p95
aV\u4f60\u53ef\u4ee5\u7b11\u4e00\u4e2a\u5417?\u6211\u4eca\u5929\u51fa\u95e8\u6709\u70b9\u7f3a\u7cd6\u3002
p96
aV\u4eca\u5929\u4e5f\u662f\u56e0\u4e3aXXX\u800c\u9677\u5165\u521d\u604b\u7684\u4e00\u5929\u3002
p97
aV\u59d0\u59b9\uff0c\u7a0d\u5fae\u6709\u70b9\u59ff\u8272\u5c31\u884c\u4e86\uff0c\u5012\u4e0d\u5fc5\u7f8e\u7684\u5982\u6b64\u6ee1\u5206
p98
aV\u6211\u5728\u661f\u5149\u91cc\u4e3a\u4f60\u5450\u558a\uff0c\u6700\u7f8e\u597d\u7684\u5c81\u6708\u90fd\u4e0e\u4f60\u6709\u5173\uff01
p99
aV\u54ea\u6015\u53ea\u6709\u4e00\u5929\uff0c\u4e5f\u60f3\u7528\u8fd9\u5f20\u8138\u6d3b\u4e00\u6b21\u3002
p100
aV\u8fd9\u4e2a\u989c\u503c\u6211\u80fd\u8214\u4e00\u8f88\u5b50\u3002
p101
aV\u4f60\u7684\u773c\u4e2d\u6709\u6625\u4e0e\u79cb\uff0c\u80dc\u8fc7\u6211\u89c1\u8fc7\u7231\u8fc7\u7684\u4e00\u5207\u5c71\u5ddd\u4e0e\u6cb3\u6d41\u3002
p102
aV\u4f60\u5728\u53d1\u5149\uff0c\u6708\u4eae\u7684\u6e05\u8f89\u548c\u592a\u9633\u7684\u7099\u70ed\u4e5f\u4e0d\u53ca\u4f60\u80cc\u5f71\u7684\u4e00\u5206\u4e00\u6beb
p103
aV\u4f60\u662f\u9020\u7269\u8005\u7684\u5149\u8363\uff0c\u662f\u56db\u5b63\u4e0d\u53d8\u7684\u90c1\u90c1\u8471\u8471\uff0c\u662f\u5c71\u6d77\u4e91\u971e\u91cc\u6e29\u67d4\u7684\u98ce\u3002\u662f\u6211\u6240\u6709\u5c81\u6708\u91cc\uff0c\u6c38\u8fdc\u7684\u7f8e\u68a6
p104
aV\u559c\u6b22\u4e00\u5207\u53ef\u7231\u7684\u4eba\u4e0e\u4e8b\uff0c\u60a6\u8033\u7684\u98ce\u94c3\u3001\u4f38\u61d2\u8170\u7684\u732b\u54aa\u3001\u53fd\u53fd\u55b3\u55b3\u7684\u5c0f\u9e1f\u3001\u5728\u98ce\u91cc\u7ffb\u98de\u7684\u4e66\u9875\u4e0a\u7684\u6f02\u4eae\u7684\u6587\u5b57\u3002\u559c\u6b22\u4e16\u95f4\u4e07\u7269\uff0c\u4f46\u6211\u66f4\u559c\u6b22\u4f60
p105
aV\u4e07\u7269\u67af\u8363\u7686\u4e3a\u4f60\u773c\uff0c\u6211\u76ee\u7729\u795e\u9a70\u3002\u800c\u4f60\u4e00\u7b11\u6e05\u660e\uff0c\u6f66\u5012\u6211\u7684\u4f17\u751f
p106
aV\u4ece\u5934\u53d1\u5230\u811a\u90fd\u5145\u6ee1\u5e05\u6c14\u56e0\u5b50\u7684\u54e5\u54e5\u3002
p107
aV\u5f53\u65f6\u5e74\u5c11\u6625\u886b\u8584\uff0c\u9a91\u9a6c\u501a\u659c\u6865\uff0c\u6ee1\u697c\u7ea2\u8896\u62db\u3002
p108
aV\u4f60\u4e00\u5b9a\u51fa\u95e8\u62b9\u4e86\u871c \u6211\u770b\u4f60\u7684\u773c\u795e\u624d\u4f1a\u8fd9\u4e48\u751c
p109
aV\u4f60\u773c\u4e2d\u7684\u94f6\u6cb3\uff0c\u6211\u6240\u6458\u5230\u7684\u68a6\u3002
p110
aV\u6211\u5988\u8bf4\u6211\u5e94\u8be5\u53bb\u559c\u6b22\u4e00\u4e2a\u6d3b\u6cfc \u7ae5\u989c \u4f18\u96c5 \u806a\u660e \u61c2\u4e8b \u7ec6\u817b \u7f1c\u5bc6 \u5065\u5eb7 \u80fd\u5e72 \ufa34\u52b3 \u9633\u5149 \u79ef\u6781 \u597d\u5b66 \u5446\u840c \u5fe0\u2f3c \u5584\u826f \u575a\u5f3a \u575a\u5b9a \u679c\u65ad \u52c7\u6562 \u72ec\u7acb \u56e2\u7ed3 \u793c\u8c8c \u4f18\u7f8e \u4e49\u6c14 \u667a\u6167 \u2f24\u5ea6 \u8c41\u8fbe \u5bbd\u5bb9 \u8c26\u865a \u5f00\u6717 \u4e13\u5fc3 \u4e50\u89c2 \u70ed\u5fc3 \u611f\u6069 \u5b5d\u987a \u901a\u60c5\u8fbe\uf9e4 \u5584\u89e3\u2f08\u610f\u7684\u4eba\uff0c\u2f50\u5982\u4f60
p111
aV\u5979\u90a3\u53cc\u542b\u7740\u8bd8\u95ee\u795e\u60c5\u7684\u773c\u775b\uff0c\u7f8e\u4e3d\u3001\u6e5b\u84dd\uff0c\u900f\u7740\u51b7\u51b7\u7684\u5149\uff0c\u6070\u662f\u5357\u6d77\u7684\u6d6e\u51b0\u6620\u7740\u590f\u65e5\u7684\u592a\u9633\u53d1\u51fa\u7684\u90a3\u79cd\u5149\u4eae\u3002
p112
aV\u6211\u751f\u5728\u5357\u65b9\uff0c\u6d3b\u5728\u5357\u65b9\uff0c\u683d\u5728\u4f60\u624b\u91cc\uff0c\u603b\u7b97\u662f\u53bb\u8fc7\u4e0d\u4e00\u6837\u7684\u5730\u65b9\u3002
p113
aV\u4f60\u4ee5\u4e3a\u81ea\u5df1\u957f\u5f97\u5f88\u597d\u770b\u5417\uff1f\u6ca1\u9519\u6211\u4e5f\u8fd9\u4e48\u4ee5\u4e3a\u3002
p114
aV\u4f60\u7a7f\u7740\u7eff\u8272\u7684\u96e8\u8863\uff0c\u50cf\u4e00\u4e2a\u836f\u74f6\u5b50\uff0c\u91cc\u9762\u662f\u533b\u6211\u7684\u836f\u3002
p115
aV\u201c\u5929\u6c14\u8fd9\u4e48\u51b7\uff0c\u4f60\u77e5\u9053\u600e\u4e48\u53d6\u6696\u5417?\u201d \u201c\u4e0d\u77e5\u9053\u3002\u201d \u201c\u6211\u4e5f\u4e0d\u77e5\u9053\uff0c\u4f46\u6211\u77e5\u9053\u600e\u4e48\u5a36\u4f60\u3002\u201d
p116
aV\u8a00\u5ff5\u541b\u5b50\uff0c\u6e29\u5176\u5982\u7389\u3002\u5728\u5176\u677f\u5c4b\uff0c\u4e71\u6211\u5fc3\u66f2
p117
aV\u6211\u559c\u6b22\u4f60\u5929\u5730\u53ef\u9274\uff0c\u4e5f\u62dc\u6258\u4f60\u559c\u6b22\u6211\u4e00\u70b9\u70b9\uff0c\u4e0d\u8981\u6c38\u8fdc\u505a\u4e2a\u5c0f\u6c14\u9b3c\u3002
p118
aV\u4f60\u5c31\u662f\u4e00\u5757\u5de7\u514b\u529b\uff0c\u4e56\u5de7\u53ef\u7231\u53c8\u7f8e\u4e3d\uff01
p119
aV\u591c\u8272\u6d6a\u6f2b\uff0c\u53ca\u4e0d\u4e0a\u4f60\u3002\u2002
p120
aV\u51ac\u6df1\u96ea\u51b7\u7089\u706b\u6e29\u9152\uff0c\u800c\u4f60\u4e00\u7b11\u53c8\u89c1\u6625\u98ce\u3002
p121
aV\u628a\u7709\u6e05\u76ee\u79c0\u8fd8\u7ed9\u5c71\u6c34\u5929\u5730\uff0c\u628a\u677e\u95f4\u7ec6\u96e8\u8fd8\u7ed9\u521d\u9047\uff0c\u628a\u4e00\u89c1\u949f\u60c5\uff0c\u8fd8\u7ed9\u4f60\u3002
p122
aV\u5f53\u65f6\u5e74\u5c11\u6625\u886b\u8584\uff0c\u9a91\u9a6c\u501a\u659c\u6865\uff0c\u6ee1\u697c\u7ea2\u8896\u62db\u3002
p123
aV\u6211\u613f\u610f\u7528\u4e00\u5343\u4e07\u5e74\u7b49\u5f85\u4f60\u521d\u6625\u6696\u9633\u822c\u7684\u7efd\u989c\u4e00\u7b11
p124
aV\u4f60\u7a7f\u7740\u7eff\u8272\u7684\u96e8\u8863\uff0c\u50cf\u4e00\u4e2a\u836f\u74f6\u5b50\uff0c\u91cc\u9762\u662f\u533b\u6211\u7684\u836f\u3002
p125
aV\u5feb\u95e8\u4e00\u6b21,\u5fc3\u52a8\u5343\u6b21\u3002
p126
aV\u4eca\u65e5\u4efd\u7684\u7f8e\u8c8c\uff08\u5e05\u6c14\uff09\u4e5f\u6b63\u5e38\u8425\u4e1a\u4e86\u3002
p127
aV\u5982\u679c\u4f60\u8fc7\u5f97\u4e0d\u5e78\u798f\uff0c\u6211\u6240\u505a\u7684\u4e00\u5207\u624d\u662f\u5f92\u52b3\u3002
p128
aV\u8fc7\u5206\u5e05\u6c14\u4e5f\u662f\u8fdd\u6cd5\u7684\u3002
p129
aV\u6700\u8fd1\u7684\u81ea\u62cd\u53d1\u6211\uff0c\u6211\u8981\u6362\u58c1\u7eb8\u4e86
p130
aVXXX\u771f\u662f\u4eba\u95f4\u6c34\u871c\u6843\u4e86\u3002
p131
aV\u4e07\u7269\u67af\u8363\u7686\u4e3a\u4f60\u773c\uff0c\u6211\u76ee\u7729\u795e\u9a70\u3002\u800c\u4f60\u4e00\u7b11\u6e05\u660e\uff0c\u6f66\u5012\u6211\u7684\u4f17\u751f
p132
aV\u6211\u77e5\u9053\u8fd9\u4e16\u754c\u6ca1\u6709\u60f3\u8c61\u7684\u597d\uff0c\u7ec8\u6709\u4e00\u65e5\u4f60\u8870\u8001\u6211\u75c5\u4ea1\uff0c\u4f46\u6211\u7ec8\u7a76\u8981\u611f\u8c22\u547d\u8fd0\uff0c\u4e0d\u7ba1\u5b83\u5982\u4f55\u5f85\u6211\uff0c\u81f3\u5c11\u8ba9\u6211\u9047\u89c1\u4e86\u4f60
p133
aV\u56e0\u4e3a\u6709\u54e5\u54e5\u7684\u817f\uff0c\u4ece\u6b64\u4e16\u4e0a\u4fbf\u591a\u4e86\u4e00\u5ea7\u4e07\u91cc\u957f\u57ce\u3002
p134
aV\u5018\u82e5\u7f8e\u8c8c\u53ef\u4ee5\u6740\u4eba\uff0c\u90a3\u6211\u65e9\u5df2\u7ecf\u88ab\u4f60\u6740\u7684\u7247\u7532\u4e0d\u7559\u4e86\u3002
p135
aV\u9047\u89c1\u4f60\u4e4b\u540e\uff0c\u6211\u5c31\u89c9\u5f97\u4eba\u751f\u82e6\u77ed\u3002\u4e3a\u4ec0\u4e48\u82e6\u77ed\u5462\uff1f\u56e0\u4e3a\u751c\u7684\u90e8\u5206\u592a\u957f\u4e86\u3002
p136
aV\u4f60\u662f\u8fd9\u4e16\u95f4\u4e00\u5207\u7f8e\u597d\u4e8b\u60c5\u7684\u524d\u63d0\uff0c\u4f60\u662f\u4eba\u95f4\u8fd9\u4e0d\u6bdb\u4e4b\u5730\u7684\u9ad8\u697c\u6797\u7acb\uff0c\u4f60\u662f\u6d77\u98ce\u6e10\u6696\u5439\u8fc7\u6708\u4eae\u7684\u6b22\u559c\uff0c\u4f60\u662f\u6625\u98ce\u5f97\u610f\u3002
p137
aV\u8bf7\u95ee\u662f\u6df7\u8840\u513f\u5417\uff1f\u7f8e\u5973\u6df7\u4ed9\u5973\u7684\u90a3\u79cd\u3002
p138
aV\u4f60\u773c\u4e2d\u7684\u94f6\u6cb3\uff0c\u6211\u6240\u6458\u5230\u7684\u68a6\u3002
p139
aV\u7f8e\u597d\u7684\u4e8b\u60c5\u4f60\u90fd\u7528\u8138\u505a\u5230\u4e86
p140
aV\u5bf9\u4e0d\u8d77\uff0c\u6211\u63a5\u53d7\u4e0d\u4e86\u7f51\u604b\uff0c\u865a\u65e0\u7f25\u7f08\u7684\u4e1c\u897f\u6ca1\u529e\u6cd5\u7ed9\u6211\u5e26\u6765\u5b89\u5168\u611f\uff0c\u731c\u5fcc\u548c\u6000\u7591\u662f\u6df1\u591c\u6d41\u6cea\u7684\u6839\u6e90\uff0c\u6211\u8981\u7a33\u7a33\u7684\u5e78\u798f\uff0c\u4e00\u4f38\u624b\u5c31\u80fd\u89e6\u78b0\u7684\u90a3\u79cd\u3002\u4f46\u770b\u5230\u4f60\u8fd9\u5f20\u7167\u7247\u6211\u5c31\u77e5\u9053\uff1a\u6211\u80fd\u63a5\u53d7
p141
aV\u4f60\u662f\u6211\u7684\u73ab\u7470\u4f60\u662f\u6211\u7684\u82b1\uff0c\u5c0f\u9e1f\u7684\u60c5\u8bdd\u53ea\u7ed9\u60a8\u5938\u3002
p142
aV\u6bcf\u5929\u90fd\u662f\u5982\u6b64\u7684\u9b45\u529b\u65e0\u7a77\u3002
p143
aV\u501f\u7740\u4f60\u7684\u5149\uff0c\u6211\u770b\u89c1\u4e86\u6211\u4ece\u672a\u89c1\u8fc7\u7684\u4e16\u754c
p144
aV\u4fcf\u4e3d\u82e5\u4e09\u6625\u4e4b\u6843\uff0c\u6e05\u7d20\u82e5\u4e5d\u79cb\u4e4b\u83ca
p145
aV\u4f60\u6709\u5927\u80f8\u6000\uff0c\u8fd8\u6709\u5c0f\u53ef\u7231\u3002
p146
aV\u56de\u7738\u4e00\u7b11\u767e\u5a9a\u751f\uff0c\u516d\u5bab\u7c89\u9edb\u65e0\u989c\u8272\u3002
p147
aV\u4f60\u592a\u81ea\u79c1\u4e86\uff0c\u6bcf\u6b21\u4f60\u53d1\u81ea\u62cd\uff0c\u4f1a\u6709\u591a\u5c11\u4eba\u7761\u4e0d\u7740\u89c9\uff0c\u4f60\u4e0d\u5728\u4e4e\uff0c\u6709\u591a\u5c11\u4eba\u9971\u53d7\u76f8\u601d\u4e4b\u75db\uff0c\u4f60\u4e0d\u5728\u4e4e\uff0c\u6709\u591a\u5c11\u4eba\u627f\u53d7\u7740\u6240\u7231\u4e0d\u5f97\u4e4b\u82e6\uff0c\u4f60\u4e0d\u5728\u4e4e\uff0c\u4f60\u53ea\u5728\u4e4e\u4f60\u81ea\u5df1\uff0c\u5c31\u50cf\u6211\u53ea\u5728\u4e4e\u4f60\u4e00\u6837\u81ea\u79c1\u3002
p148
aV\u4e0a\u5e1d\u521b\u9020\u4f60\u7684\u65f6\u5019\uff0c\u662f\u4e0d\u662f\u7cd6\u7f50\u5b50\u5012\u4e86\u6492\u4f60\u8eab\u4e0a\u4e86\uff1f
p149
aV\u559c\u6b22\u4e00\u5207\u53ef\u7231\u7684\u4eba\u4e0e\u4e8b\uff0c\u60a6\u8033\u7684\u98ce\u94c3\u3001\u4f38\u61d2\u8170\u7684\u732b\u54aa\u3001\u53fd\u53fd\u55b3\u55b3\u7684\u5c0f\u9e1f\u3001\u5728\u98ce\u91cc\u7ffb\u98de\u7684\u4e66\u9875\u4e0a\u7684\u6f02\u4eae\u7684\u6587\u5b57\u3002\u559c\u6b22\u4e16\u95f4\u4e07\u7269\uff0c\u4f46\u6211\u66f4\u559c\u6b22\u4f60\uff0c\u56e0\u4e3a\u4f60\u662f\u53ef\u7231\u672c\u8eab\u3002
p150
aV\u672c\u6765\u60f3\u8bb8\u613f\u300c\u6211\u80fd\u62e5\u6709\u5f3a\u5927\u7684\u4fdd\u62a4\u4f60\u7684\u80fd\u529b\u300d\uff0c\u540e\u6765\u89c9\u5f97\u4e0d\u591f\u597d\uff0c\u4e8e\u662f\u6362\u6210\u4e86\u300c\u4f60\u5c06\u6c38\u8fdc\u987a\u5229\u4ee5\u81f3\u4e8e\u4e0d\u9700\u8981\u4efb\u4f55\u4eba\u7684\u4fdd\u62a4\u300d\u3002
p151
aV\u4f60\u773c\u4e2d\u7684\u94f6\u6cb3\uff0c\u6211\u6240\u6458\u5230\u7684\u68a6\u3002
p152
aVXXX\u771f\u662f\u4eba\u95f4\u6c34\u871c\u6843\u4e86\u3002
p153
aV\u4ed6\u8138\u4e0a\u7684\u4e0d\u662f\u80e1\u5b50\u800c\u662f\u73ab\u7470\u82b1\u7684\u523a\u3002
p154
aV\u4f60\u53bb\u5b66\u6e38\u6cf3\u5427\uff0c\u8fd9\u6837\u6211\u4eec\u5c31\u80fd\u6c38\u6d74\u7231\u6cb3\u4e86\u3002
p155
aV\u4f60\u7684\u989c\u503c\u597d\u5947\u602a\u5440\uff0c\u4e00\u4e0b\u5b50\u9ad8\uff0c\u4e00\u4e0b\u5b50\u66f4\u9ad8\u3002
p156
aV\u8fd9\u5f20\u8138\u5728\u53e4\u4ee3\u53ef\u4ee5\u6362\u8fb9\u7586300\u5e74\u548c\u5e73\u4e86\u3002
p157
aV\u6211\u5e38\u5e38\u611f\u5230\u5e86\u5e78\u53c8\u5feb\u4e50\uff0c\u56e0\u4e3a\u6211\u6240\u751f\u6d3b\u7684\u8fd9\u4e2a\u4e16\u754c\u4e0a\uff0c\u6709\u50cf\u4f60\u8fd9\u4e48\u597d\u7684\u4eba\u5b58\u5728\u7740
p158
aV\u72ec\u81ea\u8d70\u8fc7\u82cd\u82cd\u83bd\u83bd\uff0c\u4e0e\u4f60\u540c\u884c\u624d\u6709\u4e86\u5149\u3002
p159
aV\u5979\u90a3\u53cc\u542b\u7740\u8bd8\u95ee\u795e\u60c5\u7684\u773c\u775b\uff0c\u7f8e\u4e3d\u3001\u6e5b\u84dd\uff0c\u900f\u7740\u51b7\u51b7\u7684\u5149\uff0c\u6070\u662f\u5357\u6d77\u7684\u6d6e\u51b0\u6620\u7740\u590f\u65e5\u7684\u592a\u9633\u53d1\u51fa\u7684\u90a3\u79cd\u5149\u4eae\u3002
p160
aV\u7ed9\u522b\u4eba\u7559\u6761\u540e\u8def\u5427\uff0c\u522b\u6253\u626e\u4e86\uff0c\u7f8e\u5230\u7a92\u606f\u4e86\u3002
p161
aV\u60f3\u5728\u54e5\u54e5\u7684\u9f3b\u6881\u4e0a\u6ed1\u6ed1\u68af\u3002
p162
aV\u6700\u597d\u7684\u90a3\u5929\u592a\u96be\u6311\u9009\uff0c\u4e0d\u5982\u5c31\u5b9a\u4e49\u4e3a\u76f8\u9047\u8fd9\u5929\u3002
p163
aV\u773c\u955c\u628a\u4f60\u773c\u775b\u91cc\u7684\u661f\u5149\u90fd\u653e\u5927\u5566\uff01\u4f60\u662f\u4e0d\u662f\u5077\u8d70\u4e86\u94f6\u6cb3\u7cfb\u85cf\u5728\u90a3\u91cc\u4e86 \uff01
p164
aV\u4f60\u7684\u624b\u6307\u662f\u9ebb\u9189\u9488\uff0c\u78b0\u4e00\u4e0b\uff0c\u4fbf\u6c89\u9189
p165
aV\u4e16\u754c\u5175\u8352\u9a6c\u4e71\uff0c\u552f\u6709\u4f60\uff0c\u65b9\u80fd\u62b5\u5fa1\u8fd9\u5c81\u6708\u6f2b\u957f\u3002
p166
aV\u90fd\u662f\u7b2c\u4e00\u6b21\u505a\u4eba\uff0c\u51ed\u4ec0\u4e48\u4f60\u8fd9\u4e48\u7f8e\uff1f
p167
aV\u4fcf\u4e3d\u82e5\u4e09\u6625\u4e4b\u6843\uff0c\u6e05\u7d20\u82e5\u4e5d\u79cb\u4e4b\u83ca
p168
aVXXX\u6700\u5927\u7684\u9057\u61be\u5c31\u662f\u4e0d\u80fd\u4eb2\u543b\u81ea\u5df1\u7684\u8138\u3002
p169
aV\u4ed6\u7684\u80cc\u5f71\u4eff\u4f5b\u6162\u653e\u7684\u7f57\u66fc\u8482\u514b\u7535\u5f71\uff0c\u4e00\u79d2\u4e00\u5e27\u5b9a\u683c\u5f97\u60df\u5999\u60df\u8096\uff0c\u7626\u524a\u7684\u81c2\u8180\u906e\u4e0d\u4f4f\u78c5\u7934\u7231\u610f\uff0c\u4ed6\u5411\u5149\u8d70\u53bb\uff0c\u53c8\u50cf\u662f\u8d70\u5411\u4e86\u8c01\u7684\u68a6\u3002
p170
aV\u8a00\u5ff5\u541b\u5b50\uff0c\u6e29\u5176\u5982\u7389\u3002\u5728\u5176\u677f\u5c4b\uff0c\u4e71\u6211\u5fc3\u66f2
p171
aV\u660e\u660e\u6ca1\u6709\u8d85\u901f\uff0c\u5374\u8fd8\u662f\u88ab\u4ea4\u8b66\u6293\u4f4f\u4e86\uff0c\u539f\u6765\u662f\u4f60\u8ba9\u6211\u5fc3\u8df3\u52a0\u901f\u3002
p172
aV\u751f\u6d3b\u6bcf\u5929\u90fd\u8ba9\u6211\u7070\u5934\u571f\u8138\uff0c\u4f60\u5374\u6709\u80fd\u529b\u8ba9\u6c99\u6f20\u91cc\u5f00\u51fa\u8537\u8587\u3002
p173
aV.\u4f60\u6709\u6ca1\u6709\u95fb\u5230\u70e7\u7126\u7684\u5473\u9053\uff0c\u90a3\u662f\u6211\u7684\u5fc3\u5728\u4e3a\u4f60\u71c3\u70e7\u3002
p174
aV\u60f3\u628a\u6211\u6ce1\u5728\u725b\u5976\u74f6\u91cc\u7684\u4e00\u53e5\u53e5\u60c5\u8bdd\u5168\u635e\u4e0a\u6765\uff0c\u7cbe\u5fc3\u5305\u88c5\u6210\u7cd6\u679c\uff0c\u6ee1\u5f53\u5f53\u5730\u6293\u4e00\u628a\u5c31\u6367\u5230\u4f60\u9762\u524d\u3002
p175
aV\u4e16\u754c\u5175\u8352\u9a6c\u4e71\uff0c\u552f\u6709\u4f60\uff0c\u65b9\u80fd\u62b5\u5fa1\u8fd9\u5c81\u6708\u6f2b\u957f\u3002
p176
aV\u4f60\u6709\u5927\u80f8\u6000\uff0c\u8fd8\u6709\u5c0f\u53ef\u7231\u3002
p177
aV\u5982\u679c\u4e16\u754c\u771f\u7684\u4e0d\u559c\u6b22\u4f60\uff0c\u90a3\u4e16\u754c\u5c31\u662f\u6211\u7684\u654c\u4eba\u4e86\u3002
p178
aV\u5b97\u4e4b\u6f47\u6d12\u7f8e\u5c11\u5e74\uff0c\u4e3e\u89de\u767d\u773c\u671b\u9752\u5929\uff0c\u768e\u5982\u7389\u6811\u4e34\u98ce\u524d
p179
aV\u60f3\u5728\u54e5\u54e5\u7684\u9f3b\u6881\u4e0a\u6ed1\u6ed1\u68af\u3002
p180
aV\u4ee5\u540e\u7684\u6bcf\u4e00\u5206\u949f\uff0c\u6211\u4f1a\u5f53\u4f60\u7684\u5b88\u536b\uff0c\u966a\u4f60\u8d70\u5411\u6bcf\u4e00\u4e2a\u7ed3\u5c3e\u3002
p181
aV\u4f60\u7684\u624b\u6307\u662f\u9ebb\u9189\u9488\uff0c\u78b0\u4e00\u4e0b\uff0c\u4fbf\u6c89\u9189
p182
aV\u4f60\u8fd9\u8f88\u5b50\u6700\u9057\u61be\u7684\u4e8b\u5c31\u662f\u65e0\u6cd5\u543b\u4f60\u81ea\u5df1\u7684\u8138\u3002
p183
aV\u4f60\u4e0a\u8f88\u5b50\u4e00\u5b9a\u662f\u78b3\u9178\u996e\u6599\u5427? \u90a3\u4e3a\u4ec0\u4e48\u6211\u4e00\u770b\u5230\u4f60\u5c31\u80fd\u5f00\u5fc3\u7684\u5192\u6ce1\u3002
p184
aV\u72ec\u81ea\u8d70\u8fc7\u82cd\u82cd\u83bd\u83bd\uff0c\u4e0e\u4f60\u540c\u884c\u624d\u6709\u4e86\u5149\u3002
p185
aV\u6bcf\u4e00\u5e27\u90fd\u5982\u6b64\u4ee4\u4eba\u5fc3\u52a8\u3002
p186
aV\u591a\u8c22\u4f60\u5982\u6b64\u7cbe\u5f69\u8000\u773c\uff0c\u505a\u6211\u5e73\u6de1\u5c81\u6708\u91cc\u7684\u661f\u8fb0
p187
aV\u4f60\u7684\u7167\u7247\u771f\u68d2\uff0c\u6211\u4e0d\u662f\u5728\u5938\u4f60\u7684\u7f8e\u8c8c\uff0c\u6211\u53ea\u662f\u5728\u63d0\u9192\u4f60\uff0c\u591a\u53d1\u70b9\uff0c\u6211\u5185\u5b58\u591f\u7528
p188
aV\u5e38\u5728\u60f3\u4e16\u754c\u8981\u6d88\u5931\u591a\u5c11\u6076\u610f\uff0c\u624d\u914d\u5f97\u4e0a\u4f60\u7684\u5584\u826f\u3002
p189
aVXXX\u7684\u7f8e\u8c8c\u771f\u662f\u5386\u4ee3\u7ea7\u7684\u3002
p190
aV\u4e0a\u5e1d\u521b\u9020\u4f60\u7684\u65f6\u5019\uff0c\u662f\u4e0d\u662f\u7cd6\u7f50\u5b50\u5012\u4e86\u6492\u4f60\u8eab\u4e0a\u4e86\uff1f
p191
aV\u4f60\u4e00\u51fa\u73b0\uff0c\u4e16\u95f4\u7f8e\u597d\u96c6\u4e8e\u4e00\u8eab
p192
aV\u4f60\u4e00\u62ac\u773c\uff0c\u4f3c\u534e\u5c71\u70df\u96e8\u95f4\uff0c\u5251\u6c14\u70b9\u8fc7\u6211\u7709\u5fc3\uff0c\u6e85\u8d77\u6625\u98ce\u3002
p193
aV\u4f60\u4e00\u5b9a\u51fa\u95e8\u62b9\u4e86\u871c \u6211\u770b\u4f60\u7684\u773c\u795e\u624d\u4f1a\u8fd9\u4e48\u751c
p194
aV\u51ac\u6df1\u96ea\u51b7\u7089\u706b\u6e29\u9152\uff0c\u800c\u4f60\u4e00\u7b11\u53c8\u89c1\u6625\u98ce\u3002
p195
aV\u4e07\u7269\u67af\u8363\u7686\u4e3a\u4f60\u773c\uff0c\u6211\u76ee\u7729\u795e\u9a70\u3002\u800c\u4f60\u4e00\u7b11\u6e05\u660e\uff0c\u6f66\u5012\u6211\u7684\u4f17\u751f\u3002
p196
aV\u60f3\u7ed9\u4f60\u4ece\u6e05\u6668\u70b9\u8d5e\u5230\u65e5\u66ae\uff0c\u4ece\u5317\u6781\u8de8\u8d8a\u5230\u5357\u6781\uff0c\u4f60\u653e\u5fc3\u53bb\u98de\uff01
p197
aV\u8bf7\u95ee\u662f\u6df7\u8840\u513f\u5417\uff1f\u7f8e\u5973\u6df7\u4ed9\u5973\u7684\u90a3\u79cd\u3002
p198
aV\u4f60\u773c\u4e2d\u6709\u6625\u4e0e\u79cb\uff0c\u80dc\u8fc7\u6211\u89c1\u8fc7\u7231\u8fc7\u7684\u4e00\u5207\u5c71\u5ddd\u4e0e\u6cb3\u6d41\u3002
p199
aV\u4f60\u5728\u8ba4\u771f\u62cd\u7167\uff0c\u6211\u5728\u786e\u8ba4\u8109\u640f
p200
aV\u4f60\u6709\u5927\u80f8\u6000\uff0c\u8fd8\u6709\u5c0f\u53ef\u7231\u3002
p201
aV\u516b\u4e5d\u5341\u5e74\u4ee3\u7684\u5915\u9633\uff0c\u6c24\u6c32\u6d77\u98ce\u7684\u7f8e\u9152\u3002\u9187\u539a\u548c\u8fc7\u53bb\u6c89\u6dc0\u4e0b\u7684\u6602\u8d35\uff0c\u662f\u4f60\u3002
p202
aV\u6708\u8272\u548c\u96ea\u8272\u4e4b\u95f4\uff0c\u4f60\u662f\u7b2c\u4e09\u79cd\u7edd\u8272\u3002
p203
aV\u4f60\u5728\u53d1\u5149\uff0c\u6708\u4eae\u7684\u6e05\u8f89\u548c\u592a\u9633\u7684\u7099\u70ed\u4e5f\u4e0d\u53ca\u4f60\u80cc\u5f71\u7684\u4e00\u5206\u4e00\u6beb
p204
aV\u7709\u6bdb\u4e0d\u662f\u7709\u6bdb\uff0c\u662f\u8fdc\u5c71\u85cf\u4e0d\u4f4f\u7684\u4e91\u6101\uff1b\u773c\u775b\u4e0d\u662f\u773c\u775b\uff0c\u662f\u6c5f\u6cb3\u5954\u817e\u6c47\u805a\u7684\u7480\u74a8\uff1b\u5634\u5df4\u4e5f\u4e0d\u662f\u5634\u5df4\uff0c\u662f\u7ea2\u5c18\u56a3\u56a3\u91cc\u7684\u5fd2\u715e\u60c5\u6d53\u3002
p205
aV\u559c\u6b22\u770b\u4f60\u8ba4\u771f\u7684\u6837\u2f26\uff0c\u559c\u6b22\u542c\u4f60\u7684\u58f0\u2fb3\uff0c\u5fcd\u4e0d\u4f4f\u60f3\u8981\u6c38\u8fdc\u62e5\u6709\u4f60\u7684\u5fae\u7b11~
p206
aV\u4f60\u662f\u6211\u591c\u91cc\u7684\u661f\u661f\u5343\u4e07\u9897\uff0c\u95ea\u70c1\u7740\u5fc3\u82b1\u6735\u6735\u3002
p207
aV\u8001\u5929\u7237\uff0c\u5c31\u8ba9\u6211\u5ac1\u7ed9\u4ed6\u5427\u3002\u62dc\u6258\u62dc\u6258\uff0c\u6211\u597d\u559c\u6b22\u4ed6\uff0c\u4ed6\u662f\u5b87\u5b99\u6700\u53ef\u7231\u7684\u5c0f\u7537\u5b69\uff01
p208
aV\u4e0d\u8981\u6dcb\u5230\u96e8\u5566\uff0c\u4e0d\u7136\u4f60\u4f1a\u53ef\u7231\u5230\u53d1\u82bd\u7684\u3002
p209
aV\u201c\u5929\u6c14\u8fd9\u4e48\u51b7\uff0c\u4f60\u77e5\u9053\u600e\u4e48\u53d6\u6696\u5417?\u201d \u201c\u4e0d\u77e5\u9053\u3002\u201d \u201c\u6211\u4e5f\u4e0d\u77e5\u9053\uff0c\u4f46\u6211\u77e5\u9053\u600e\u4e48\u5a36\u4f60\u3002\u201d
p210
aV\u559c\u6b22\u4e00\u5207\u53ef\u7231\u7684\u4eba\u4e0e\u4e8b\uff0c\u60a6\u8033\u7684\u98ce\u94c3\u3001\u4f38\u61d2\u8170\u7684\u732b\u54aa\u3001\u53fd\u53fd\u55b3\u55b3\u7684\u5c0f\u9e1f\u3001\u5728\u98ce\u91cc\u7ffb\u98de\u7684\u4e66\u9875\u4e0a\u7684\u6f02\u4eae\u7684\u6587\u5b57\u3002\u559c\u6b22\u4e16\u95f4\u4e07\u7269\uff0c\u4f46\u6211\u66f4\u559c\u6b22\u4f60\uff0c\u56e0\u4e3a\u4f60\u662f\u53ef\u7231\u672c\u8eab\u3002
p211
aV\u5b97\u4e4b\u6f47\u6d12\u7f8e\u5c11\u5e74\uff0c\u4e3e\u89de\u767d\u773c\u671b\u9752\u5929\uff0c\u768e\u5982\u7389\u6811\u4e34\u98ce\u524d
p212
aV\u6211\u603b\u5728\u610f\u6d41\u4e91\u4e0e\u661f\u7fa4\u7684\u5750\u6807\uff0c\u4e00\u6735\u82b1\u5f00\u8c22\u7684\u65f6\u65e5\uff0c\u539f\u91ce\u4e0e\u5e73\u5ddd\u4e00\u671b\u65e0\u57a0\u662f\u5426\u5e73\u5c55\u3002\u54ea\u77e5\u4f60\u8f7b\u8f7b\u62ac\u8d77\u7709\u68a2\uff0c\u7adf\u8d50\u4e88\u6211\u4e00\u751f\u5927\u597d\u6cb3\u5c71\u3002
p213
aV\u4e07\u7269\u67af\u8363\u7686\u4e3a\u4f60\u773c\uff0c\u6211\u76ee\u7729\u795e\u9a70\u3002\u800c\u4f60\u4e00\u7b11\u6e05\u660e\uff0c\u6f66\u5012\u6211\u7684\u4f17\u751f
p214
aV\u8fd9\u6837\u7684\u989d\u7f8e\u8c8c\u662f\u771f\u5b9e\u5b58\u5728\u7684\u5417
p215
aV\u8fd9\u6837\u7684\u989c\u503c\u662f\u771f\u5b9e\u5b58\u5728\u7684\u5417\u3002
p216
aV\u72ec\u81ea\u8d70\u8fc7\u82cd\u82cd\u83bd\u83bd\uff0c\u4e0e\u4f60\u540c\u884c\u624d\u6709\u4e86\u5149\u3002
p217
aV\u7b2c\u4e00\u6b21\u770b\u5230\u5b87\u5b99\uff0c\u662f\u548c\u4f60\u56db\u76ee\u76f8\u5bf9\u7684\u65f6\u5019\u3002
p218
aV\u6211\u4eec\u5b9d\u8d1d\u8fd9\u58f0\u97f3\u662f\u5403CD\u957f\u5927\u7684\u5427\u3002
p219
aV\u8fd9\u4e2a\u989c\u503c\u6211\u80fd\u8214\u4e00\u8f88\u5b50\u3002
p220
aV\u522b\u4e71\u52a8\uff01\u522b\u8ba9\u6211\u7231\u60c5\u7684\u7bad\u5c04\u504f\u4e86\u3002
p221
aV\u4e16\u4e0a\u6709\u4e24\u79cd\u5973\u5b69\u6700\u53ef\u7231\uff0c\u4e00\u79cd\u662f\u6f02\u4eae\uff1b\u4e00\u79cd\u662f\u806a\u6167\uff0c\u800c\u4f60\u662f\u806a\u660e\u7684\u6f02\u4eae\u5973\u5b69\u3002
p222
aV\u4eba\u751f\u8def\u4e0a\u8fc7\u5ba2\u5f88\u591a\uff0c\u4ed6\u4eba\u5411\u4e1c\u5411\u897f\u5411\u5357\u5411\u5317\uff0c\u800c\u6211\uff0c\u53ea\u5411\u4f60\u3002
p223
aV\u6211\u77e5\u9053\u8fd9\u4e16\u754c\u6ca1\u6709\u60f3\u8c61\u7684\u597d\uff0c\u7ec8\u6709\u4e00\u65e5\u4f60\u8870\u8001\u6211\u75c5\u4ea1\uff0c\u4f46\u6211\u7ec8\u7a76\u8981\u611f\u8c22\u547d\u8fd0\uff0c\u4e0d\u7ba1\u5b83\u5982\u4f55\u5f85\u6211\uff0c\u81f3\u5c11\u8ba9\u6211\u9047\u89c1\u4e86\u4f60
p224
aV\u4f60\u60f3\u8981\u7684\u4e00\u5207\u7ec8\u4f1a\u62b5\u8fbe\uff0c\u7ec8\u6709\u4e00\u5929\u4f60\u4f1a\u5728\u81ea\u5df1\u70ed\u7231\u7684\u4e16\u754c\u91cc\u95ea\u95ea\u53d1\u5149
p225
aV\u770b\u7740\u4f60\uff0c\u5de5\u4f5c\u65e5\u7684\u4e0b\u5348\u8336\u90fd\u8981\u751c\u4e0a\u51e0\u5206\u3002
p226
aV\u5982\u679c\u4f60\u662f\u9c7c\u5c31\u597d\u4e86\uff0c\u56e0\u4e3a\u6211\u5e74\u5e74\u6709\u9c7c\u2661\u3002
p227
aV\u5e38\u5728\u60f3\u4e16\u754c\u8981\u6d88\u5931\u591a\u5c11\u6076\u610f\uff0c\u624d\u914d\u5f97\u4e0a\u4f60\u7684\u5584\u826f\u3002
p228
aV\u6211\u5728\u884c\u661f\u4e0a\u5199\u4e0b\u4e86\u4f60\u7684\u540d\u5b57\uff0c\u5982\u679c\u661f\u5149\u6d12\u843d\u7684\u8bdd\uff0c\u90a3\u9897\u661f\u661f\u4f1a\u6700\u95ea\u8000
p229
aV\u4f60\u7a7f\u7740\u7eff\u8272\u7684\u96e8\u8863\uff0c\u50cf\u4e00\u4e2a\u836f\u74f6\u5b50\uff0c\u91cc\u9762\u662f\u533b\u6211\u7684\u836f\u3002
p230
aV\u4ed6\u7684\u80cc\u5f71\u4eff\u4f5b\u6162\u653e\u7684\u7f57\u66fc\u8482\u514b\u7535\u5f71\uff0c\u4e00\u79d2\u4e00\u5e27\u5b9a\u683c\u5f97\u60df\u5999\u60df\u8096\uff0c\u7626\u524a\u7684\u81c2\u8180\u906e\u4e0d\u4f4f\u78c5\u7934\u7231\u610f\uff0c\u4ed6\u5411\u5149\u8d70\u53bb\uff0c\u53c8\u50cf\u662f\u8d70\u5411\u4e86\u8c01\u7684\u68a6\u3002
p231
aV\u4f60\u7684\u624b\u6307\u662f\u9ebb\u9189\u9488\uff0c\u78b0\u4e00\u4e0b\uff0c\u4fbf\u6c89\u9189
p232
aV\u4e16\u754c\u5175\u8352\u9a6c\u4e71\uff0c\u552f\u6709\u4f60\uff0c\u65b9\u80fd\u62b5\u5fa1\u8fd9\u5c81\u6708\u6f2b\u957f\u3002
p233
aV\u8bb0\u4f4f\u4e86\uff0c\u4f60\u4e5f\u662f\u5149\u4eae\u7684\u672c\u8eab\uff0c\u4f60\u7684\u5b58\u5728\u672c\u6765\u5c31\u662f\u4e00\u9053\u5149
p234
aV\u4f60\u5176\u6709\u70b9\u50cf\u5929\u4e0a\u7684\u6708\u4eae\uff0c\u4e5f\u50cf\u90a3\u95ea\u70c1\u7684\u661f\u661f\uff0c\u53ef\u60dc\u6211\u4e0d\u662f\u8bd7\u4eba\uff0c\u5426\u5219\u5f53\u5199\u4e00\u4e07\u9996\u8bd7\u6765\u5f62\u5bb9\u4f60\u7684\u7f8e\u4e3d\u3002
p235
aV\u5bf9\u4e0d\u8d77\uff0c\u6211\u63a5\u53d7\u4e0d\u4e86\u7f51\u604b\uff0c\u865a\u65e0\u7f25\u7f08\u7684\u4e1c\u897f\u6ca1\u529e\u6cd5\u7ed9\u6211\u5e26\u6765\u5b89\u5168\u611f\uff0c\u731c\u5fcc\u548c\u6000\u7591\u662f\u6df1\u591c\u6d41\u6cea\u7684\u6839\u6e90\uff0c\u6211\u8981\u7a33\u7a33\u7684\u5e78\u798f\uff0c\u4e00\u4f38\u624b\u5c31\u80fd\u89e6\u78b0\u7684\u90a3\u79cd\u3002\u4f46\u770b\u5230\u4f60\u8fd9\u5f20\u7167\u7247\u6211\u5c31\u77e5\u9053\uff1a\u6211\u80fd\u63a5\u53d7
p236
aV\u5979\u8138\u4e0a\u7684\u4e0d\u662f\u6c57\u6c34\u800c\u662f\u73ab\u7470\u82b1\u7684\u9732\u6c34\u3002
p237
aV\u6211\u6240\u9047\u89c1\u7684\u6700\u6d6a\u6f2b\u7684\u8bd7\uff0c\u662f\u4f60\uff1b\u6211\u671b\u5c71\u671b\u6c34\u671b\u7a7f\u7684\u79cb\u6c34\uff0c\u662f\u4f60\u3002
p238
aV\u4f60\u7b80\u76f4\u662f\u5927\u9646\u989c\u503c\u7684\u6807\u6746\uff0c\u5373\u4f7f\u662f\u540e\u8111\u52fa\u4e5f\u662f\u60ca\u4eba\u7684\u7f8e\u8c8c\uff0c\u8fde\u98ce\u548c\u9633\u5149\u90fd\u4f1a\u5ac9\u5992\u5427
p239
aV\u60f3\u7ed9\u4f60\u4ece\u6e05\u6668\u70b9\u8d5e\u5230\u65e5\u66ae\uff0c\u4ece\u5317\u6781\u8de8\u8d8a\u5230\u5357\u6781\uff0c\u4f60\u653e\u5fc3\u53bb\u98de\uff01
p240
aV\u4f60\u4ee5\u4e3a\u81ea\u5df1\u957f\u5f97\u5f88\u597d\u770b\u5417\uff1f\u6ca1\u9519\u6211\u4e5f\u8fd9\u4e48\u4ee5\u4e3a\u3002
p241
aV\u4f60\u4e0a\u8f88\u5b50\u4e00\u5b9a\u662f\u78b3\u9178\u996e\u6599\u5427? \u90a3\u4e3a\u4ec0\u4e48\u6211\u4e00\u770b\u5230\u4f60\u5c31\u80fd\u5f00\u5fc3\u7684\u5192\u6ce1\u3002
p242
aV\u60f3\u7ed9\u4f60\u4ece\u6e05\u6668\u70b9\u8d5e\u5230\u65e5\u66ae\uff0c\u4ece\u5317\u6781\u8de8\u8d8a\u5230\u5357\u6781\uff0c\u4f60\u653e\u5fc3\u53bb\u98de\uff01
p243
aV\u4f60\u5728\u6211\u9762\u524d\u6c38\u8fdc\u90fd\u95ea\u95ea\u53d1\u5149\uff0c\u5c31\u50cf\u6574\u4e2a\u5b87\u5b99\u7684\u661f\u5149\u90fd\u6d12\u5728\u4f60\u8eab\u4e0a
p244
aV\u6211\u5988\u8bf4\u6211\u5e94\u8be5\u53bb\u559c\u6b22\u4e00\u4e2a\u6d3b\u6cfc \u7ae5\u989c \u4f18\u96c5 \u806a\u660e \u61c2\u4e8b \u7ec6\u817b \u7f1c\u5bc6 \u5065\u5eb7 \u80fd\u5e72 \ufa34\u52b3 \u9633\u5149 \u79ef\u6781 \u597d\u5b66 \u5446\u840c \u5fe0\u2f3c \u5584\u826f \u575a\u5f3a \u575a\u5b9a \u679c\u65ad \u52c7\u6562 \u72ec\u7acb \u56e2\u7ed3 \u793c\u8c8c \u4f18\u7f8e \u4e49\u6c14 \u667a\u6167 \u2f24\u5ea6 \u8c41\u8fbe \u5bbd\u5bb9 \u8c26\u865a \u5f00\u6717 \u4e13\u5fc3 \u4e50\u89c2 \u70ed\u5fc3 \u611f\u6069 \u5b5d\u987a \u901a\u60c5\u8fbe\uf9e4 \u5584\u89e3\u2f08\u610f\u7684\u4eba\uff0c\u2f50\u5982\u4f60
p245
aV\u4f60\u4e0a\u8f88\u5b50\u4e00\u5b9a\u662f\u78b3\u9178\u996e\u6599\u5427? \u90a3\u4e3a\u4ec0\u4e48\u6211\u4e00\u770b\u5230\u4f60\u5c31\u80fd\u5f00\u5fc3\u7684\u5192\u6ce1\u3002
p246
aV\u4f60\u773c\u4e2d\u7684\u94f6\u6cb3\uff0c\u6211\u6240\u6458\u5230\u7684\u68a6\u3002
p247
aV\u6211\u77e5\u9053\u8fd9\u4e16\u754c\u6ca1\u6709\u60f3\u8c61\u7684\u597d\uff0c\u7ec8\u6709\u4e00\u65e5\u4f60\u8870\u8001\u6211\u75c5\u4ea1\uff0c\u4f46\u6211\u7ec8\u7a76\u8981\u611f\u8c22\u547d\u8fd0\uff0c\u4e0d\u7ba1\u5b83\u5982\u4f55\u5f85\u6211\uff0c\u81f3\u5c11\u8ba9\u6211\u9047\u89c1\u4e86\u4f60
p248
aV\u4e0d\u8981\u6dcb\u5230\u96e8\u5566\uff0c\u4e0d\u7136\u4f60\u4f1a\u53ef\u7231\u5230\u53d1\u82bd\u7684\u3002
p249
aV\u4ed6\u7684\u80cc\u5f71\u4eff\u4f5b\u6162\u653e\u7684\u7f57\u66fc\u8482\u514b\u7535\u5f71\uff0c\u4e00\u79d2\u4e00\u5e27\u5b9a\u683c\u5f97\u60df\u5999\u60df\u8096\uff0c\u7626\u524a\u7684\u81c2\u8180\u906e\u4e0d\u4f4f\u78c5\u7934\u7231\u610f\uff0c\u4ed6\u5411\u5149\u8d70\u53bb\uff0c\u53c8\u50cf\u662f\u8d70\u5411\u4e86\u8c01\u7684\u68a6\u3002
p250
aV\u53c8\u5230\u4e86\u6362\u624b\u673a\u684c\u9762\u7684\u65f6\u5019\u3002
p251
aV\u4e0d\u7ba1\u6709\u591a\u5c11\u9ed1\u6697\uff0c\u4e5f\u4e0d\u7ba1\u6709\u591a\u5c11\u8f6c\u5f2f\uff0c\u7528\u6700\u521d\u7684\u5fc3\u966a\u4f60\u8d70\u6700\u8fdc\u7684\u8def\u3002
p252
aV\u4f60\u643a\u98ce\u800c\u6765\uff0c\u5982\u82b1\u7efd\u653e\uff1b\u4e8e\u96ea\u8272\u4e4b\u95f4\uff0c\u63fd\u6708\u800c\u4e0a\u3002\u81f3\u6b64\uff0c\u4e16\u95f4\u6240\u8c13\u98ce\u82b1\u96ea\u6708\uff0c\u7686\u4e0e\u4f60\u6709\u5173\u3002
p253
aV\u5373\u4f7f\u662f\u540e\u8111\u52fa\u4e5f\u662f\u60ca\u4eba\u7684\u7f8e\u8c8c\u3002
p254
aV\u5e38\u5728\u60f3\u4e16\u754c\u8981\u6d88\u5931\u591a\u5c11\u6076\u610f\uff0c\u624d\u914d\u5f97\u4e0a\u4f60\u7684\u5584\u826f\u3002
p255
aV\u53c8\u5230\u4e86\u6362\u624b\u673a\u684c\u9762\u7684\u65f6\u5019\u3002
p256
aV\u591c\u8272\u6d6a\u6f2b\uff0c\u53ca\u4e0d\u4e0a\u4f60\u3002\u2002
p257
aV\u60f3\u5728\u54e5\u54e5\u7684\u9f3b\u6881\u4e0a\u6ed1\u6ed1\u68af\u3002
p258
aV\u8fd9\u6837\u7684\u989c\u503c\u662f\u771f\u5b9e\u5b58\u5728\u7684\u5417\u3002
p259
aV\u6211\u7231\u4f60\u6734\u7d20\uff0c\u4e0d\u7231\u4f60\u5962\u534e\uff0c\u4f60\u7a7f\u4e0a\u4e00\u4ef6\u84dd\u5e03\u888d\uff0c\u4f60\u7684\u7709\u76ee\u95f4\u5c31\u6709\u4e00\u79cd\u7279\u5f02\u7684\u5149\u5f69\uff0c\u6211\u770b\u4e86\u5fc3\u91cc\u5c31\u89c9\u5f97\u4e0d\u53ef\u540d\u72b6\u7684\u559c\u6b22\u3002
p260
aV\u4e0a\u5e1d\u521b\u9020\u4f60\u7684\u65f6\u5019\uff0c\u662f\u4e0d\u662f\u7cd6\u7f50\u5b50\u5012\u4e86\u6492\u4f60\u8eab\u4e0a\u4e86\uff1f
p261
aV\u4f60\u662f\u5929\u4e0a\u661f\uff0c\u6211\u662f\u5c18\u4e16\u95f4\u90a3\u4e2a\u8ffd\u661f\u7684\u4eba\uff0c\u6211\u4e50\u6b64\u4e0d\u75b2\u751a\u81f3\u7ffb\u5c71\u8d8a\u5cad\uff0c\u53ea\u4e3a\u770b\u4f60\u7728\u7728\u773c\u775b~
p262
aV\u90a3\u7e41\u590d\u7f24\u7eb7\u7684\u8272\u5f69\uff0c\u4e5f\u6bd4\u4e0d\u4e0a\u767d\u7eb8\u4e0a\u987f\u632b\u6709\u79e9\u7684\u4e00\u8bb0\u91cd\u58a8\uff0c\u53eb\u4eba\u8e0f\u5b9e\u4ece\u5bb9\uff0c\u4e5f\u53eb\u4eba\u8ff7\u604b\u7740\uff0c\u7422\u78e8\u7740\uff0c\u559c\u6b22\u5230\u8ba9\u4eba\u9b42\u4e0d\u5b88\u820d\uff0c\u96be\u4ee5\u81ea\u6301\u3002
p263
aV\u51ac\u6df1\u96ea\u51b7\u7089\u706b\u6e29\u9152\uff0c\u800c\u4f60\u4e00\u7b11\u53c8\u89c1\u6625\u98ce\u3002
p264
aV\u6211\u7684\u5fc3\u91cc\u539f\u672c\u8352\u829c\u5bf8\u8349\u4e0d\u751f\uff0c\u540e\u6765\u4f60\u6765\u8fd9\u8d70\u4e86\u4e00\u906d\uff0c\u5947\u8ff9\u822c\u4e07\u7269\u751f\u957f\u3002
p265
aV\u5929\u4f7f\u5927\u6982\u8bf4\u7684\u5c31\u662f\u8fd9\u6837\u7684\u3002
p266
aV\u51ac\u6df1\u96ea\u51b7\u7089\u706b\u6e29\u9152\uff0c\u800c\u4f60\u4e00\u7b11\u53c8\u89c1\u6625\u98ce\u3002
p267
aV\u4f60\u773c\u4e2d\u6709\u6625\u4e0e\u79cb\uff0c\u80dc\u8fc7\u6211\u89c1\u8fc7\u7231\u8fc7\u7684\u4e00\u5207\u5c71\u5ddd\u4e0e\u6cb3\u6d41\u3002
p268
aV\u6211\u771f\u7684\u9677\u5165\u7231\u60c5\u4e86\uff0c\u6bcf\u5929\u90fd\u8fd9\u4e48\u5fc3\u52a8\u3002
p269
aV\u8bf7\u95ee\u4f60\u7684\u661f\u7403\u4e0a\uff0c\u6709\u4e00\u6735\u73ab\u7470\u82b1\u4e48\u3002
p270
aV\u5979\u90a3\u53cc\u542b\u7740\u8bd8\u95ee\u795e\u60c5\u7684\u773c\u775b\uff0c\u7f8e\u4e3d\u3001\u6e5b\u84dd\uff0c\u900f\u7740\u51b7\u51b7\u7684\u5149\uff0c\u6070\u662f\u5357\u6d77\u7684\u6d6e\u51b0\u6620\u7740\u590f\u65e5\u7684\u592a\u9633\u53d1\u51fa\u7684\u90a3\u79cd\u5149\u4eae\u3002
p271
aV\u4f60\u4e0a\u8f88\u5b50\u4e00\u5b9a\u662f\u78b3\u9178\u996e\u6599\u5427? \u90a3\u4e3a\u4ec0\u4e48\u6211\u4e00\u770b\u5230\u4f60\u5c31\u80fd\u5f00\u5fc3\u7684\u5192\u6ce1\u3002
p272
aV\u54ea\u6015\u53ea\u6709\u4e00\u5929\uff0c\u4e5f\u60f3\u7528\u8fd9\u5f20\u8138\u6d3b\u4e00\u6b21\u3002
p273
aV\u62cd\u7684\u4ed6\u5988\u4ec0\u4e48\u73a9\u610f\uff0c\u670d\u4e86\uff0c\u6ca1\u6709\u4e00\u5f20\u4e0d\u597d\u770b\u3002
p274
aV\u5929\u4f7f\u5927\u6982\u8bf4\u7684\u5c31\u662f\u8fd9\u6837\u7684\u3002
p275
aV\u4f60\u662f\u96fe\uff0c\u662f\u65e7\u68a6\uff0c\u662f\u5199\u5728\u7cd6\u7eb8\u4e0a\u7684\u8bd7\uff0c\u662f\u6211\u5fc3\u4e0a\u7684\u4e00\u95f4\u5c0f\u9152\u9986
p276
aV\u6211\u4e0d\u77e5\u9053\u6b4c\u91cc\u5531\u7684\u662f\u8c01\uff0c\u6211\u542c\u7684\u5168\u90fd\u662f\u4f60\u3002
p277
aV\u4e0d\u8981\u6dcb\u5230\u96e8\u5566\uff0c\u4e0d\u7136\u4f60\u4f1a\u53ef\u7231\u5230\u53d1\u82bd\u7684\u3002
p278
aV\u54c7\uff01\u8fd9\u53d1\u5149\u7684\u7f8e\u8c8c\u662f\u771f\u5b9e\u7684\u5417\uff1f\u660e\u660e\u53ef\u4ee5\u9760\u989c\u503c\uff0c\u504f\u504f\u8981\u9760\u624d\u534e\uff01
p279
aV\u51ac\u6df1\u96ea\u51b7\u7089\u706b\u6e29\u9152\uff0c\u800c\u4f60\u4e00\u7b11\u53c8\u89c1\u6625\u98ce\u3002
p280
aV\u60f3\u7ed9\u4f60\u4ece\u6e05\u6668\u70b9\u8d5e\u5230\u65e5\u66ae\uff0c\u4ece\u5317\u6781\u8de8\u8d8a\u5230\u5357\u6781\uff0c\u4f60\u653e\u5fc3\u53bb\u98de\uff01
p281
aV\u8001\u5929\u7237\uff0c\u5c31\u8ba9\u6211\u5ac1\u7ed9\u4ed6\u5427\u3002\u62dc\u6258\u62dc\u6258\uff0c\u6211\u597d\u559c\u6b22\u4ed6\uff0c\u4ed6\u662f\u5b87\u5b99\u6700\u53ef\u7231\u7684\u5c0f\u7537\u5b69\uff01
p282
aV\u540c\u6837\u662f\u968f\u7740\u52a8\u4f5c\u800c\u98de\u626c\u7684\u957f\u53d1\u548c\u5bbd\u677e\u7bee\u7403\u961f\u961f\u670d\u7684\u4e0b\u6446\uff0c\u6f47\u6d12\u5229\u843d\u7684\u8d77\u8df3\u6295\u5165\u4e09\u5206\u7403\u6beb\u4e0d\u5728\u610f\u7684\u7ffb\u8f6c\u624b\u8155\uff0c\u624b\u80cc\u64e6\u53bb\u989d\u5934\u4e0a\u7684\u53f7\uff0c\u5f2f\u7740\u7709\u773c\u7b11\u7740\u95ee\uff1a\u201c\u6211\u8fd9\u7403\u8fd8\u4e0d\u9519\u5427\uff1f\u201d
p283
aV\u4f60\u5c45\u7136\u60f3\u9876\u7740\u8fd9\u5f20\u8138\u5b89\u9759\u751f\u6d3b\u3002
p284
aV\u4e0d\u7ba1\u6709\u591a\u5c11\u9ed1\u6697\uff0c\u4e5f\u4e0d\u7ba1\u6709\u591a\u5c11\u8f6c\u5f2f\uff0c\u7528\u6700\u521d\u7684\u5fc3\u966a\u4f60\u8d70\u6700\u8fdc\u7684\u8def\u3002\u2002
p285
aV\u4f60\u60f3\u8981\u7684\u4e00\u5207\u7ec8\u4f1a\u62b5\u8fbe\uff0c\u7ec8\u6709\u4e00\u5929\u4f60\u4f1a\u5728\u81ea\u5df1\u70ed\u7231\u7684\u4e16\u754c\u91cc\u95ea\u95ea\u53d1\u5149
p286
aV\u4f60\u7728\u7728\u773c\u775b\uff0c\u5c31\u53d8\u6210\u4e00\u9897\u661f\u661f\u843d\u5165\u6211\u7684\u5fc3\u3002
p287
aV\u6211\u6240\u9047\u89c1\u7684\u6700\u6d6a\u6f2b\u7684\u8bd7\uff0c\u662f\u4f60\uff1b\u6211\u671b\u5c71\u671b\u6c34\u671b\u7a7f\u7684\u79cb\u6c34\uff0c\u662f\u4f60\u3002
p288
aV\u4f60\u662f\u821e\u53f0\u4e2d\u592e\u6d41\u8f6c\u7684\u70ed\u6d6a\uff0c\u5728\u805a\u5149\u706f\u95ea\u70c1\u7684\u591c\u8086\u610f\u53d1\u70eb
p289
aV\u4f60\u7684\u624b\u6307\u662f\u9ebb\u9189\u9488\uff0c\u78b0\u4e00\u4e0b\uff0c\u4fbf\u6c89\u9189
p290
aV\u5306\u5306\u4e00\u773c\u5374\u8bef\u7ec8\u8eab\uff0c\u5728\u6240\u6709\u7684\u6026\u7136\u5fc3\u52a8\u91cc\u4f60\u4ecd\u62d4\u5f97\u5934\u7b79
p291
aV\u4f60\u53bb\u5b66\u6e38\u6cf3\u5427\uff0c\u8fd9\u6837\u6211\u4eec\u5c31\u80fd\u6c38\u6d74\u7231\u6cb3\u4e86\u3002
p292
aV\u9047\u89c1\u4f60\u4e4b\u540e\uff0c\u6211\u5c31\u89c9\u5f97\u4eba\u751f\u82e6\u77ed\u3002\u4e3a\u4ec0\u4e48\u82e6\u77ed\u5462\uff1f\u56e0\u4e3a\u751c\u7684\u90e8\u5206\u592a\u957f\u4e86\u3002
p293
aV\u6211\u4e0d\u77e5\u9053\u6b4c\u91cc\u5531\u7684\u662f\u8c01\uff0c\u6211\u542c\u7684\u5168\u90fd\u662f\u4f60\u3002
p294
aV\u6211\u91ce\u86ee\u751f\u957f\uff0c\u6ca1\u80fd\u6210\u4e3a\u81ea\u5df1\u7684\u6708\u4eae\uff0c\u80fd\u9047\u89c1\u4f60\uff0c\u662f\u94f6\u6cb3\u8d60\u9001\u6211\u7684\u7cd6
p295
aV\u4eca\u5929\u7684\u4f60\u4e5f\u662f\u5b87\u5b99\u72ec\u4e00\u65e0\u4e8c\u7684\u53ef\u7231\uff0c\u4e0e\u4f17\uf967\u540c\u7684\u53ef\u7231\uff0c\u8868\uf9e9\u5982\u4e00\u7684\u53ef\u7231\uff0c\u8ff7\u5012\u4e07\u5343\u5c11\u7537\u7684\u53ef\u7231\uff0c\u8bf4\uf9ba\u518d\u89c1\u4e5f\u8fd8\u662f\u6325\u4e4b\uf967\u53bb\u7684\u53ef\u7231\uff0c\u4e16\u754c\u7b2c\u4e00\u672a\u89e3\u4e4b\u8c1c\uff0c\u4e07\u5343\u79d1\u5b66\u5bb6\u7528\u5c3d\u4e00\u751f\uff0c\u6240\u6709\u7684\u79d1\u5b66\u9053\uf9e4\u4e5f\u89e3\u91ca\uf967\u51fa\u7684\u53ef\u7231\u3002
p296
aV\u4f60\u50cf\u662f\u4e00\u573a\u9065\u4e0d\u53ef\u53ca\u7684\u68a6\uff0c\u5374\u5728\u6211\u7684\u4e16\u754c\u91cc\u771f\u5b9e\u65e0\u6bd4\u3002
p297
aV\u7a81\u7136\u660e\u767d\u8fd9\u4e16\u4e0a\u6240\u6709\u4e39\u9752\u6c34\u58a8\uff0c\u5c71\u9065\u6c34\u9614\uff0c\u90fd\u662f\u4e3a\u4e86\u94fa\u57ab\u4f60\u8fd9\u4eba\u95f4\u7edd\u8272
p298
aV\u8fc7\u5206\u5e05\u6c14\u4e5f\u662f\u8fdd\u6cd5\u7684\u3002
p299
aV\u6458\u661f\u661f\u7684\u4eba\u4e3a\u4ec0\u4e48\u603b\u628a\u4f60\u6458\u4e0b\u6765\u5462\uff1f
p300
aV\u60f3\u5728\u54e5\u54e5\u7684\u9f3b\u6881\u4e0a\u6ed1\u6ed1\u68af\u3002
p301
aV\u8fd9\u79cd\u7a0b\u5ea6\u7684\u989c\u503c\u771f\u7684\u5408\u7406\u5417\u3002
p302
aVXXX\u6700\u5927\u7684\u9057\u61be\u5c31\u662f\u4e0d\u80fd\u4eb2\u543b\u81ea\u5df1\u7684\u8138\u3002
p303
aV\u7ed9\u522b\u4eba\u7559\u6761\u540e\u8def\u5427\uff0c\u522b\u6253\u626e\u4e86\uff0c\u7f8e\u5230\u7a92\u606f\u4e86\u3002
p304
aV\u7709\u6bdb\u4e0d\u662f\u7709\u6bdb\uff0c\u662f\u8fdc\u5c71\u85cf\u4e0d\u4f4f\u7684\u4e91\u6101\uff1b\u773c\u775b\u4e0d\u662f\u773c\u775b\uff0c\u662f\u6c5f\u6cb3\u5954\u817e\u6c47\u805a\u7684\u7480\u74a8\uff1b\u5634\u5df4\u4e5f\u4e0d\u662f\u5634\u5df4\uff0c\u662f\u7ea2\u5c18\u56a3\u56a3\u91cc\u7684\u5fd2\u715e\u60c5\u6d53\u3002
p305
aV\u4e0d\u662f\u996d\u4e5f\u8ba4\u8bc1\u7684\u5e05\u6c14\u3002
p306
aV\u4f60\u5728\u6211\u9762\u524d\u6c38\u8fdc\u90fd\u95ea\u95ea\u53d1\u5149\uff0c\u5c31\u50cf\u6574\u4e2a\u5b87\u5b99\u7684\u661f\u5149\u90fd\u6d12\u5728\u4f60\u8eab\u4e0a
p307
aV\u4f60\u77e5\u9053\u4e3a\u4ec0\u4e48\u6211\u8fd9\u4e48\u597d\u52a8\u5417? \u56e0\u4e3a\u6bcf\u4e00\u523b\u90fd\u5728\u4e3a\u4f60\u5fc3\u52a8\u3002
p308
aV\u62cd\u7684\u4ed6\u5988\u4ec0\u4e48\u73a9\u610f\uff0c\u670d\u4e86\uff0c\u6ca1\u6709\u4e00\u5f20\u4e0d\u597d\u770b\u3002
p309
aV\u4f60\u662f\u65e5\u65e5\u591c\u591c\u7684\u60f3\u5ff5\u548c\u6c38\u4e0d\u843d\u5e55\u7684\u6df1\u591c\u661f\u8fb0\u3002
p310
aV\u4f60\u50cf\u662f\u4e00\u573a\u9065\u4e0d\u53ef\u53ca\u7684\u68a6\uff0c\u5374\u5728\u6211\u7684\u4e16\u754c\u91cc\u771f\u5b9e\u65e0\u6bd4\u3002
p311
aV\u6211\u503e\u5bb6\u8361\u4ea7\u4e70\u4e86\u628a\u5251\uff0c\u6253\u7b97\u559d\u7897\u9152\u4fbf\u95ef\u8361\u6c5f\u6e56\uff0c\u78b0\u5de7\u4f60\u5728\u90bb\u684c\u7b11\uff0c\u4ece\u6b64\u5fc3\u4e2d\u65e0\u6c5f\u6e56
p312
aV\u516b\u4e5d\u5341\u5e74\u4ee3\u7684\u5915\u9633\uff0c\u6c24\u6c32\u6d77\u98ce\u7684\u7f8e\u9152\u3002\u9187\u539a\u548c\u8fc7\u53bb\u6c89\u6dc0\u4e0b\u7684\u6602\u8d35\uff0c\u662f\u4f60\u3002
p313
aV\u4e0d\u7ba1\u6709\u591a\u5c11\u9ed1\u6697\uff0c\u4e5f\u4e0d\u7ba1\u6709\u591a\u5c11\u8f6c\u5f2f\uff0c\u7528\u6700\u521d\u7684\u5fc3\u966a\u4f60\u8d70\u6700\u8fdc\u7684\u8def\u3002\u2002
p314
aV\u4f60\u773c\u4e2d\u6709\u6625\u4e0e\u79cb\uff0c\u80dc\u8fc7\u6211\u89c1\u8fc7\u7231\u8fc7\u7684\u4e00\u5207\u5c71\u5ddd\u4e0e\u6cb3\u6d41\u3002
p315
aV\u4f60\u662f\u6f02\u6d6e\u5728\u6211\u5fc3\u91cc\u7684\u7ea2\u8272\u73ab\u7470\u82b1\uff0c\u7ffb\u6eda\u7740\uff0c\u660e\u4eae\u7684\u3002
p316
aV\u4e0a\u5e1d\u521b\u9020\u4f60\u7684\u65f6\u5019\uff0c\u662f\u4e0d\u662f\u7cd6\u7f50\u5b50\u5012\u4e86\u6492\u4f60\u8eab\u4e0a\u4e86\uff1f
p317
aV\u5018\u82e5\u7f8e\u8c8c\u53ef\u4ee5\u6740\u4eba\uff0c\u90a3\u6211\u65e9\u5df2\u7ecf\u88ab\u4f60\u6740\u7684\u7247\u7532\u4e0d\u7559\u4e86\u3002
p318
aV\u8bf7\u95ee\u662f\u6df7\u8840\u513f\u5417\uff1f\u7f8e\u5973\u6df7\u4ed9\u5973\u7684\u90a3\u79cd\u3002
p319
aV\u4ed6\u8138\u4e0a\u7684\u4e0d\u662f\u80e1\u5b50\u800c\u662f\u73ab\u7470\u82b1\u7684\u523a\u3002
p320
aV\u4f60\u5728\u8ba4\u771f\u62cd\u7167\uff0c\u6211\u5728\u786e\u8ba4\u8109\u640f
p321
aV\u4eca\u65e5\u4efd\u7684\u7f8e\u8c8c\uff08\u5e05\u6c14\uff09\u4e5f\u6b63\u5e38\u8425\u4e1a\u4e86\u3002
p322
aV\u4f60\u60f3\u8981\u7684\u4e00\u5207\u7ec8\u4f1a\u62b5\u8fbe\uff0c\u7ec8\u6709\u4e00\u5929\u4f60\u4f1a\u5728\u81ea\u5df1\u70ed\u7231\u7684\u4e16\u754c\u91cc\u95ea\u95ea\u53d1\u5149
p323
aV\u56e0\u4e3a\u6709\u54e5\u54e5\u7684\u817f\uff0c\u4ece\u6b64\u4e16\u4e0a\u4fbf\u591a\u4e86\u4e00\u5ea7\u4e07\u91cc\u957f\u57ce\u3002
p324
aV\u5bf9\u4e0d\u8d77\uff0c\u6211\u63a5\u53d7\u4e0d\u4e86\u7f51\u604b\uff0c\u865a\u65e0\u7f25\u7f08\u7684\u4e1c\u897f\u6ca1\u529e\u6cd5\u7ed9\u6211\u5e26\u6765\u5b89\u5168\u611f\uff0c\u731c\u5fcc\u548c\u6000\u7591\u662f\u6df1\u591c\u6d41\u6cea\u7684\u6839\u6e90\uff0c\u6211\u8981\u7a33\u7a33\u7684\u5e78\u798f\uff0c\u4e00\u4f38\u624b\u5c31\u80fd\u89e6\u78b0\u7684\u90a3\u79cd\u3002\u4f46\u770b\u5230\u4f60\u8fd9\u5f20\u7167\u7247\u6211\u5c31\u77e5\u9053\uff1a\u6211\u80fd\u63a5\u53d7
p325
aV\u5b97\u4e4b\u6f47\u6d12\u7f8e\u5c11\u5e74\uff0c\u4e3e\u89de\u767d\u773c\u671b\u9752\u5929\uff0c\u768e\u5982\u7389\u6811\u4e34\u98ce\u524d
p326
aV\u4f60\u643a\u98ce\u800c\u6765\uff0c\u5982\u82b1\u7efd\u653e\uff1b\u4e8e\u96ea\u8272\u4e4b\u95f4\uff0c\u63fd\u6708\u800c\u4e0a\u3002\u81f3\u6b64\uff0c\u4e16\u95f4\u6240\u8c13\u98ce\u82b1\u96ea\u6708\uff0c\u7686\u4e0e\u4f60\u6709\u5173\u3002
p327
aV\u6211\u5988\u8bf4\u6211\u5e94\u8be5\u53bb\u559c\u6b22\u4e00\u4e2a\u6d3b\u6cfc \u7ae5\u989c \u4f18\u96c5 \u806a\u660e \u61c2\u4e8b \u7ec6\u817b \u7f1c\u5bc6 \u5065\u5eb7 \u80fd\u5e72 \ufa34\u52b3 \u9633\u5149 \u79ef\u6781 \u597d\u5b66 \u5446\u840c \u5fe0\u2f3c \u5584\u826f \u575a\u5f3a \u575a\u5b9a \u679c\u65ad \u52c7\u6562 \u72ec\u7acb \u56e2\u7ed3 \u793c\u8c8c \u4f18\u7f8e \u4e49\u6c14 \u667a\u6167 \u2f24\u5ea6 \u8c41\u8fbe \u5bbd\u5bb9 \u8c26\u865a \u5f00\u6717 \u4e13\u5fc3 \u4e50\u89c2 \u70ed\u5fc3 \u611f\u6069 \u5b5d\u987a \u901a\u60c5\u8fbe\uf9e4 \u5584\u89e3\u2f08\u610f\u7684\u4eba\uff0c\u2f50\u5982\u4f60
p328
aV\u6c42\u4f60\u4e0d\u8981\u518d\u7528\u8138\u86cb\u6765\u6740\u4eba\u4e86\uff0c\u6211\u5df2\u7ecf\u538c\u5026\u4e86\u5728\u4f60\u9762\u524d\u53cd\u590d\u53bb\u4e16
p329
aV\u60f3\u628a\u6211\u6ce1\u5728\u725b\u5976\u74f6\u91cc\u7684\u4e00\u53e5\u53e5\u60c5\u8bdd\u5168\u635e\u4e0a\u6765\uff0c\u7cbe\u5fc3\u5305\u88c5\u6210\u7cd6\u679c\uff0c\u6ee1\u5f53\u5f53\u5730\u6293\u4e00\u628a\u5c31\u6367\u5230\u4f60\u9762\u524d\u3002
p330
aV\u51ac\u6df1\u96ea\u51b7\u7089\u706b\u6e29\u9152\uff0c\u800c\u4f60\u4e00\u7b11\u53c8\u89c1\u6625\u98ce\u3002
p331
aV\u8bf7\u95ee\u662f\u6df7\u8840\u513f\u5417\uff1f\u7f8e\u5973\u6df7\u4ed9\u5973\u7684\u90a3\u79cd\u3002
p332
aV\u8fd9\u6e29\u541e\u4e16\u4fd7\u4eba\u95f4\u70df\u706b\uff0c\u53ea\u6709\u4f60\u662f\u6211\u7684\u6c5f\u6cb3\u6e56\u6cca
p333
aV\u6458\u661f\u661f\u7684\u4eba\u4e3a\u4ec0\u4e48\u603b\u628a\u4f60\u6458\u4e0b\u6765\u5462\uff1f
p334
aV\u62b1\u8d77XXX\u5c31\u662f\u4e00\u4e2a\u767e\u7c73\u51b2\u523a\u3002
p335
aV\u4e07\u7269\u67af\u8363\u7686\u4e3a\u4f60\u773c\uff0c\u6211\u76ee\u7729\u795e\u9a70\u3002\u800c\u4f60\u4e00\u7b11\u6e05\u660e\uff0c\u6f66\u5012\u6211\u7684\u4f17\u751f
p336
aV\u4f60\u548c\u6211\u7684\u4e00\u4e2a\u68a6\u957f\u5f97\u597d\u50cf\u3002
p337
aV\u4f1a\u53d1\u5149\u7684\u540d\u54c1\u7f8e\u8c8c\u3002
p338
aV\u7761\u4e0d\u5230XXX\u7684\u4eba\u751f\u6709\u4ec0\u4e48\u610f\u4e49\u3002
p339
aV\u4f60\u5728\u6211\u9762\u524d\u6c38\u8fdc\u90fd\u95ea\u95ea\u53d1\u5149\uff0c\u5c31\u50cf\u6574\u4e2a\u5b87\u5b99\u7684\u661f\u5149\u90fd\u6d12\u5728\u4f60\u8eab\u4e0a
p340
aV\u201c\u5929\u6c14\u8fd9\u4e48\u51b7\uff0c\u4f60\u77e5\u9053\u600e\u4e48\u53d6\u6696\u5417?\u201d \u201c\u4e0d\u77e5\u9053\u3002\u201d \u201c\u6211\u4e5f\u4e0d\u77e5\u9053\uff0c\u4f46\u6211\u77e5\u9053\u600e\u4e48\u5a36\u4f60\u3002\u201d
p341
aV\u4f60\u592a\u81ea\u79c1\u4e86\uff0c\u6bcf\u6b21\u4f60\u53d1\u81ea\u62cd\uff0c\u4f1a\u6709\u591a\u5c11\u4eba\u7761\u4e0d\u7740\u89c9\uff0c\u4f60\u4e0d\u5728\u4e4e\uff0c\u6709\u591a\u5c11\u4eba\u9971\u53d7\u76f8\u601d\u4e4b\u75db\uff0c\u4f60\u4e0d\u5728\u4e4e\uff0c\u6709\u591a\u5c11\u4eba\u627f\u53d7\u7740\u6240\u7231\u4e0d\u5f97\u4e4b\u82e6\uff0c\u4f60\u4e0d\u5728\u4e4e\uff0c\u4f60\u53ea\u5728\u4e4e\u4f60\u81ea\u5df1\uff0c\u5c31\u50cf\u6211\u53ea\u5728\u4e4e\u4f60\u4e00\u6837\u81ea\u79c1\u3002
p342
aV\u6bcf\u4e00\u5e27\u90fd\u5982\u6b64\u4ee4\u4eba\u5fc3\u52a8\u3002
p343
aV\u51ac\u6df1\u96ea\u51b7\u7089\u706b\u6e29\u9152\uff0c\u800c\u4f60\u4e00\u7b11\u53c8\u89c1\u6625\u98ce\u3002
p344
aV\u8bf7\u95ee\u4f60\u7684\u661f\u7403\u4e0a\uff0c\u6709\u4e00\u6735\u73ab\u7470\u82b1\u4e48\u3002
p345
aV\u770b\u7740\u4f60\uff0c\u5de5\u4f5c\u65e5\u7684\u4e0b\u5348\u8336\u90fd\u8981\u751c\u4e0a\u51e0\u5206\u3002
p346
aV\u53ef\u4ee5\u7ed9\u6211\u4e00\u7247\u6ce1\u817e\u7247\u5417? \u4e3a\u4ec0\u4e48\u6bcf\u6b21\u770b\u5230\u4f60\u6211\u5c31\u90a3\u4e48\u6ca1\u6709\u62b5\u6297\u529b\u3002
p347
aV\u4f60\u77e5\u9053\u4e3a\u4ec0\u4e48\u6211\u8fd9\u4e48\u597d\u52a8\u5417? \u56e0\u4e3a\u6bcf\u4e00\u523b\u90fd\u5728\u4e3a\u4f60\u5fc3\u52a8\u3002
p348
aV\u5982\u679c\u4f60\u8fc7\u5f97\u4e0d\u5e78\u798f\uff0c\u6211\u6240\u505a\u7684\u4e00\u5207\u624d\u662f\u5f92\u52b3\u3002
p349
aV\u4e16\u4e0a\u6709\u4e24\u79cd\u5973\u5b69\u6700\u53ef\u7231\uff0c\u4e00\u79cd\u662f\u6f02\u4eae\uff1b\u4e00\u79cd\u662f\u806a\u6167\uff0c\u800c\u4f60\u662f\u806a\u660e\u7684\u6f02\u4eae\u5973\u5b69\u3002
p350
aV\u8ba9\u4eba\u5fc3\u7a7a\u7684\u5916\u8c8c\u62e5\u6709\u8005\u3002
p351
aV\u4e0d\u6562\u7728\u773c\uff0c\u56e0\u4e3a\u7728\u773c\u671f\u95f4\u5c31\u770b\u4e0d\u5230\u4f60\u4e86\u3002
p352
aV\u6211\u6240\u9047\u89c1\u7684\u6700\u6d6a\u6f2b\u7684\u8bd7\uff0c\u662f\u4f60\uff1b\u6211\u671b\u5c71\u671b\u6c34\u671b\u7a7f\u7684\u79cb\u6c34\uff0c\u662f\u4f60\u3002
p353
aV\u4f60\u662f\u821e\u53f0\u4e2d\u592e\u6d41\u8f6c\u7684\u70ed\u6d6a\uff0c\u5728\u805a\u5149\u706f\u95ea\u70c1\u7684\u591c\u8086\u610f\u53d1\u70eb
p354
aV\u665a\u98ce\u8f7b\u8e29\u7740\u4e91\u6735\uff0c\u6708\u4eae\u5728\u8d29\u552e\u5feb\u4e50\uff0c\u4f60\u4ece\u94f6\u6cb3\u540e\u9760\u8fd1\u6211\uff0c\u6211\u4e0e\u661f\u8f89\u4e00\u540c\u4e3a\u4f60\u6c89\u6ca6
p355
aV\u4f60\u53ef\u4ee5\u7b11\u4e00\u4e2a\u5417?\u6211\u4eca\u5929\u51fa\u95e8\u6709\u70b9\u7f3a\u7cd6\u3002
p356
aV\u4f60\u592a\u81ea\u79c1\u4e86\uff0c\u6bcf\u6b21\u4f60\u53d1\u81ea\u62cd\uff0c\u4f1a\u6709\u591a\u5c11\u4eba\u7761\u4e0d\u7740\u89c9\uff0c\u4f60\u4e0d\u5728\u4e4e\uff0c\u6709\u591a\u5c11\u4eba\u9971\u53d7\u76f8\u601d\u4e4b\u75db\uff0c\u4f60\u4e0d\u5728\u4e4e\uff0c\u6709\u591a\u5c11\u4eba\u627f\u53d7\u7740\u6240\u7231\u4e0d\u5f97\u4e4b\u82e6\uff0c\u4f60\u4e0d\u5728\u4e4e\uff0c\u4f60\u53ea\u5728\u4e4e\u4f60\u81ea\u5df1\uff0c\u5c31\u50cf\u6211\u53ea\u5728\u4e4e\u4f60\u4e00\u6837\u81ea\u79c1\u3002
p357
aV\u5306\u5306\u4e00\u773c\u5374\u8bef\u7ec8\u8eab\uff0c\u5728\u6240\u6709\u7684\u6026\u7136\u5fc3\u52a8\u91cc\u4f60\u4ecd\u62d4\u5f97\u5934\u7b79
p358
aV\u8fd9\u4e5f\u592a\u597d\u770b\u4e86\uff01\u7f8e\u5230\u6211\u75af\u72c2\u7838\u5899\uff0c\u73b0\u5728\u6211\u4eec\u5bb6\u5df2\u7ecf\u53d8\u6210\u4e86\u5355\u95f4\u4e86\u3002
p359
aV\u6211\u5728\u884c\u661f\u4e0a\u5199\u4e0b\u4e86\u4f60\u7684\u540d\u5b57\uff0c\u5982\u679c\u661f\u5149\u6d12\u843d\u7684\u8bdd\uff0c\u90a3\u9897\u661f\u661f\u4f1a\u6700\u95ea\u8000
p360
aV\u51ac\u6df1\u96ea\u51b7\u7089\u706b\u6e29\u9152\uff0c\u800c\u4f60\u4e00\u7b11\u53c8\u89c1\u6625\u98ce\u3002
p361
aV\u4f60\u662f\u821e\u53f0\u4e2d\u592e\u6d41\u8f6c\u7684\u70ed\u6d6a\uff0c\u5728\u805a\u5149\u706f\u95ea\u70c1\u7684\u591c\u8086\u610f\u53d1\u70eb
p362
aV\u4f60\u662f\u4e16\u95f4\u6700\u53ef\u7231\u7684\u5c0f\u661f\u661f\uff0c\u6211\u7231\u4e86\u6574\u4e2a\u5b87\u5b99\u53ea\u4e3a\u4e86\u548c\u4f60\u78b0\u5934
p363
aV\u4e0d\u7ba1\u6709\u591a\u5c11\u9ed1\u6697\uff0c\u4e5f\u4e0d\u7ba1\u6709\u591a\u5c11\u8f6c\u5f2f\uff0c\u7528\u6700\u521d\u7684\u5fc3\u966a\u4f60\u8d70\u6700\u8fdc\u7684\u8def\u3002\u2002
p364
aV\u8fd9\u4e2a\u989c\u503c\u6211\u80fd\u8214\u4e00\u8f88\u5b50\u3002
p365
aV\u5bf9\u4e0d\u8d77\uff0c\u6211\u63a5\u53d7\u4e0d\u4e86\u7f51\u604b\uff0c\u865a\u65e0\u7f25\u7f08\u7684\u4e1c\u897f\u6ca1\u529e\u6cd5\u7ed9\u6211\u5e26\u6765\u5b89\u5168\u611f\uff0c\u731c\u5fcc\u548c\u6000\u7591\u662f\u6df1\u591c\u6d41\u6cea\u7684\u6839\u6e90\uff0c\u6211\u8981\u7a33\u7a33\u7684\u5e78\u798f\uff0c\u4e00\u4f38\u624b\u5c31\u80fd\u89e6\u78b0\u7684\u90a3\u79cd\u3002\u4f46\u770b\u5230\u4f60\u8fd9\u5f20\u7167\u7247\u6211\u5c31\u77e5\u9053\uff1a\u6211\u80fd\u63a5\u53d7
p366
aV\u6211\u613f\u610f\u7528\u4e00\u5343\u4e07\u5e74\u7b49\u5f85\u4f60\u521d\u6625\u6696\u9633\u822c\u7684\u7efd\u989c\u4e00\u7b11
p367
aV\u6708\u8272\u548c\u96ea\u8272\u4e4b\u95f4\uff0c\u4f60\u662f\u7b2c\u4e09\u79cd\u7edd\u8272\u3002
p368
aV\u4f60\u7b11\u7684\u65f6\u5019\uff0c\u6211\u5fc3\u91cc\u88ab\u6492\u4e86\u4e00\u628a\u8df3\u8df3\u7cd6\u3002
p369
aV\u4f60\u95ea\u70c1\u4e00\u4e0b\uff0c\u6211\u7684\u4e16\u754c\u706b\u82b1\u98de\u821e
p370
aVXXX\u771f\u662f\u4eba\u95f4\u6c34\u871c\u6843\u4e86\u3002
p371
aV\u770b\u7740\u4f60\uff0c\u5de5\u4f5c\u65e5\u7684\u4e0b\u5348\u8336\u90fd\u8981\u751c\u4e0a\u51e0\u5206\u3002
p372
aV\u559c\u6b22\u770b\u4f60\u8ba4\u771f\u7684\u6837\u2f26\uff0c\u559c\u6b22\u542c\u4f60\u7684\u58f0\u2fb3\uff0c\u5fcd\u4e0d\u4f4f\u60f3\u8981\u6c38\u8fdc\u62e5\u6709\u4f60\u7684\u5fae\u7b11~
p373
aV\u6211\u771f\u7684\u9677\u5165\u7231\u60c5\u4e86\uff0c\u6bcf\u5929\u90fd\u8fd9\u4e48\u5fc3\u52a8\u3002
p374
aV\u6211\u559c\u6b22\u4f60\u5929\u5730\u53ef\u9274\uff0c\u4e5f\u62dc\u6258\u4f60\u559c\u6b22\u6211\u4e00\u70b9\u70b9\uff0c\u4e0d\u8981\u6c38\u8fdc\u505a\u4e2a\u5c0f\u6c14\u9b3c\u3002
p375
aV\u4ed6\u7684\u80cc\u5f71\u4eff\u4f5b\u6162\u653e\u7684\u7f57\u66fc\u8482\u514b\u7535\u5f71\uff0c\u4e00\u79d2\u4e00\u5e27\u5b9a\u683c\u5f97\u60df\u5999\u60df\u8096\uff0c\u7626\u524a\u7684\u81c2\u8180\u906e\u4e0d\u4f4f\u78c5\u7934\u7231\u610f\uff0c\u4ed6\u5411\u5149\u8d70\u53bb\uff0c\u53c8\u50cf\u662f\u8d70\u5411\u4e86\u8c01\u7684\u68a6\u3002
p376
aV\u6708\u4eae\u85cf\u8fdb\u4e91\u91cc\uff0c\u5982\u679c\u4f60\u5df2\u7ecf\u7761\u4e86\uff0c\u90a3\u6211\u8981\u5077\u5077\u543b\u543b\u4f60\u3002\u4f60\u6bd4\u4e00\u767e\u53ea\u732b\u732b\u52a0\u8d77\u6765\u53ef\u7231\uff0c\u6211\u5462\uff0c\u6bd4\u4e00\u767e\u53ea\u732b\u732b\u52a0\u8d77\u6765\u597d\u7761\uff0c\u4f60\u8981\u4e0d\u8981\u6765\u8bd5\u8bd5\uff1f
p377
aV\u4f60\u643a\u98ce\u800c\u6765\uff0c\u5982\u82b1\u7efd\u653e\uff1b\u4e8e\u96ea\u8272\u4e4b\u95f4\uff0c\u63fd\u6708\u800c\u4e0a\u3002\u81f3\u6b64\uff0c\u4e16\u95f4\u6240\u8c13\u98ce\u82b1\u96ea\u6708\uff0c\u7686\u4e0e\u4f60\u6709\u5173\u3002
p378
aV\u4ed6\u8138\u4e0a\u7684\u4e0d\u662f\u80e1\u5b50\u800c\u662f\u73ab\u7470\u82b1\u7684\u523a\u3002
p379
aV\u4f60\u7684\u773c\u4e2d\u6709\u6625\u4e0e\u79cb\uff0c\u80dc\u8fc7\u6211\u89c1\u8fc7\u7231\u8fc7\u7684\u4e00\u5207\u5c71\u5ddd\u4e0e\u6cb3\u6d41\u3002
p380
aV\u4f60\u77e5\u9053\u6211\u6700\u5927\u7684\u7f3a\u70b9\u662f\u4ec0\u4e48? \u662f\u7f3a\u70b9\u4f60\u3002
p381
a.